Archive member included to satisfy reference by file (symbol)

/home/wenda/opt/gcc-arm-none-eabi/bin/../lib/gcc/arm-none-eabi/5.4.1/../../../../arm-none-eabi/lib/armv7e-m/fpu/libstdc++_nano.a(del_op.o)
                              machinelearning.o (operator delete(void*))
/home/wenda/opt/gcc-arm-none-eabi/bin/../lib/gcc/arm-none-eabi/5.4.1/../../../../arm-none-eabi/lib/armv7e-m/fpu/libstdc++_nano.a(si_class_type_info.o)
                              tensorflow/lite/experimental/micro/micro_error_reporter.o (vtable for __cxxabiv1::__si_class_type_info)
/home/wenda/opt/gcc-arm-none-eabi/bin/../lib/gcc/arm-none-eabi/5.4.1/../../../../arm-none-eabi/lib/armv7e-m/fpu/libstdc++_nano.a(eh_personality.o)
                              tensorflow/lite/experimental/micro/kernels/depthwise_conv.o (__gxx_personality_v0)
/home/wenda/opt/gcc-arm-none-eabi/bin/../lib/gcc/arm-none-eabi/5.4.1/../../../../arm-none-eabi/lib/armv7e-m/fpu/libstdc++_nano.a(eh_terminate.o)
                              /home/wenda/opt/gcc-arm-none-eabi/bin/../lib/gcc/arm-none-eabi/5.4.1/../../../../arm-none-eabi/lib/armv7e-m/fpu/libstdc++_nano.a(eh_personality.o) (std::terminate())
/home/wenda/opt/gcc-arm-none-eabi/bin/../lib/gcc/arm-none-eabi/5.4.1/../../../../arm-none-eabi/lib/armv7e-m/fpu/libstdc++_nano.a(tinfo.o)
                              /home/wenda/opt/gcc-arm-none-eabi/bin/../lib/gcc/arm-none-eabi/5.4.1/../../../../arm-none-eabi/lib/armv7e-m/fpu/libstdc++_nano.a(si_class_type_info.o) (std::type_info::__is_function_p() const)
/home/wenda/opt/gcc-arm-none-eabi/bin/../lib/gcc/arm-none-eabi/5.4.1/../../../../arm-none-eabi/lib/armv7e-m/fpu/libstdc++_nano.a(eh_arm.o)
                              tensorflow/lite/experimental/micro/kernels/depthwise_conv.o (__cxa_end_cleanup)
/home/wenda/opt/gcc-arm-none-eabi/bin/../lib/gcc/arm-none-eabi/5.4.1/../../../../arm-none-eabi/lib/armv7e-m/fpu/libstdc++_nano.a(class_type_info.o)
                              /home/wenda/opt/gcc-arm-none-eabi/bin/../lib/gcc/arm-none-eabi/5.4.1/../../../../arm-none-eabi/lib/armv7e-m/fpu/libstdc++_nano.a(si_class_type_info.o) (__cxxabiv1::__class_type_info::__do_upcast(__cxxabiv1::__class_type_info const*, void**) const)
/home/wenda/opt/gcc-arm-none-eabi/bin/../lib/gcc/arm-none-eabi/5.4.1/../../../../arm-none-eabi/lib/armv7e-m/fpu/libstdc++_nano.a(eh_call.o)
                              /home/wenda/opt/gcc-arm-none-eabi/bin/../lib/gcc/arm-none-eabi/5.4.1/../../../../arm-none-eabi/lib/armv7e-m/fpu/libstdc++_nano.a(eh_personality.o) (__cxa_call_terminate)
/home/wenda/opt/gcc-arm-none-eabi/bin/../lib/gcc/arm-none-eabi/5.4.1/../../../../arm-none-eabi/lib/armv7e-m/fpu/libstdc++_nano.a(eh_catch.o)
                              /home/wenda/opt/gcc-arm-none-eabi/bin/../lib/gcc/arm-none-eabi/5.4.1/../../../../arm-none-eabi/lib/armv7e-m/fpu/libstdc++_nano.a(eh_call.o) (__cxa_begin_catch)
/home/wenda/opt/gcc-arm-none-eabi/bin/../lib/gcc/arm-none-eabi/5.4.1/../../../../arm-none-eabi/lib/armv7e-m/fpu/libstdc++_nano.a(eh_term_handler.o)
                              /home/wenda/opt/gcc-arm-none-eabi/bin/../lib/gcc/arm-none-eabi/5.4.1/../../../../arm-none-eabi/lib/armv7e-m/fpu/libstdc++_nano.a(eh_terminate.o) (__cxxabiv1::__terminate_handler)
/home/wenda/opt/gcc-arm-none-eabi/bin/../lib/gcc/arm-none-eabi/5.4.1/../../../../arm-none-eabi/lib/armv7e-m/fpu/libstdc++_nano.a(eh_unex_handler.o)
                              /home/wenda/opt/gcc-arm-none-eabi/bin/../lib/gcc/arm-none-eabi/5.4.1/../../../../arm-none-eabi/lib/armv7e-m/fpu/libstdc++_nano.a(eh_terminate.o) (__cxxabiv1::__unexpected_handler)
/home/wenda/opt/gcc-arm-none-eabi/bin/../lib/gcc/arm-none-eabi/5.4.1/../../../../arm-none-eabi/lib/armv7e-m/fpu/libstdc++_nano.a(eh_globals.o)
                              /home/wenda/opt/gcc-arm-none-eabi/bin/../lib/gcc/arm-none-eabi/5.4.1/../../../../arm-none-eabi/lib/armv7e-m/fpu/libstdc++_nano.a(eh_catch.o) (__cxa_get_globals_fast)
/home/wenda/opt/gcc-arm-none-eabi/bin/../lib/gcc/arm-none-eabi/5.4.1/../../../../arm-none-eabi/lib/armv7e-m/fpu/libstdc++_nano.a(eh_exception.o)
                              /home/wenda/opt/gcc-arm-none-eabi/bin/../lib/gcc/arm-none-eabi/5.4.1/../../../../arm-none-eabi/lib/armv7e-m/fpu/libstdc++_nano.a(eh_arm.o) (typeinfo for __cxxabiv1::__forced_unwind)
/home/wenda/opt/gcc-arm-none-eabi/bin/../lib/gcc/arm-none-eabi/5.4.1/../../../../arm-none-eabi/lib/armv7e-m/fpu/libstdc++_nano.a(pure.o)
                              /home/wenda/opt/gcc-arm-none-eabi/bin/../lib/gcc/arm-none-eabi/5.4.1/../../../../arm-none-eabi/lib/armv7e-m/fpu/libstdc++_nano.a(eh_exception.o) (__cxa_pure_virtual)
/home/wenda/opt/gcc-arm-none-eabi/bin/../lib/gcc/arm-none-eabi/5.4.1/../../../../arm-none-eabi/lib/armv7e-m/fpu/libm.a(lib_a-s_cos.o)
                              tensorflow/lite/experimental/micro/examples/micro_speech/preprocessor.o (cos)
/home/wenda/opt/gcc-arm-none-eabi/bin/../lib/gcc/arm-none-eabi/5.4.1/../../../../arm-none-eabi/lib/armv7e-m/fpu/libm.a(lib_a-s_floor.o)
                              tensorflow/lite/kernels/internal/quantization_util.o (floor)
/home/wenda/opt/gcc-arm-none-eabi/bin/../lib/gcc/arm-none-eabi/5.4.1/../../../../arm-none-eabi/lib/armv7e-m/fpu/libm.a(lib_a-s_frexp.o)
                              tensorflow/lite/kernels/internal/quantization_util.o (frexp)
/home/wenda/opt/gcc-arm-none-eabi/bin/../lib/gcc/arm-none-eabi/5.4.1/../../../../arm-none-eabi/lib/armv7e-m/fpu/libm.a(lib_a-s_round.o)
                              tensorflow/lite/kernels/kernel_util.o (round)
/home/wenda/opt/gcc-arm-none-eabi/bin/../lib/gcc/arm-none-eabi/5.4.1/../../../../arm-none-eabi/lib/armv7e-m/fpu/libm.a(lib_a-s_sin.o)
                              tensorflow/lite/experimental/micro/examples/micro_speech/preprocessor.o (sin)
/home/wenda/opt/gcc-arm-none-eabi/bin/../lib/gcc/arm-none-eabi/5.4.1/../../../../arm-none-eabi/lib/armv7e-m/fpu/libm.a(lib_a-sf_round.o)
                              tensorflow/lite/experimental/micro/examples/micro_speech/preprocessor.o (roundf)
/home/wenda/opt/gcc-arm-none-eabi/bin/../lib/gcc/arm-none-eabi/5.4.1/../../../../arm-none-eabi/lib/armv7e-m/fpu/libm.a(lib_a-w_exp.o)
                              tensorflow/lite/experimental/micro/kernels/softmax.o (exp)
/home/wenda/opt/gcc-arm-none-eabi/bin/../lib/gcc/arm-none-eabi/5.4.1/../../../../arm-none-eabi/lib/armv7e-m/fpu/libm.a(lib_a-wf_exp.o)
                              tensorflow/lite/experimental/micro/kernels/softmax.o (expf)
/home/wenda/opt/gcc-arm-none-eabi/bin/../lib/gcc/arm-none-eabi/5.4.1/../../../../arm-none-eabi/lib/armv7e-m/fpu/libm.a(lib_a-wf_log.o)
                              tensorflow/lite/kernels/internal/quantization_util.o (logf)
/home/wenda/opt/gcc-arm-none-eabi/bin/../lib/gcc/arm-none-eabi/5.4.1/../../../../arm-none-eabi/lib/armv7e-m/fpu/libm.a(lib_a-e_exp.o)
                              /home/wenda/opt/gcc-arm-none-eabi/bin/../lib/gcc/arm-none-eabi/5.4.1/../../../../arm-none-eabi/lib/armv7e-m/fpu/libm.a(lib_a-w_exp.o) (__ieee754_exp)
/home/wenda/opt/gcc-arm-none-eabi/bin/../lib/gcc/arm-none-eabi/5.4.1/../../../../arm-none-eabi/lib/armv7e-m/fpu/libm.a(lib_a-e_rem_pio2.o)
                              /home/wenda/opt/gcc-arm-none-eabi/bin/../lib/gcc/arm-none-eabi/5.4.1/../../../../arm-none-eabi/lib/armv7e-m/fpu/libm.a(lib_a-s_cos.o) (__ieee754_rem_pio2)
/home/wenda/opt/gcc-arm-none-eabi/bin/../lib/gcc/arm-none-eabi/5.4.1/../../../../arm-none-eabi/lib/armv7e-m/fpu/libm.a(lib_a-ef_exp.o)
                              /home/wenda/opt/gcc-arm-none-eabi/bin/../lib/gcc/arm-none-eabi/5.4.1/../../../../arm-none-eabi/lib/armv7e-m/fpu/libm.a(lib_a-wf_exp.o) (__ieee754_expf)
/home/wenda/opt/gcc-arm-none-eabi/bin/../lib/gcc/arm-none-eabi/5.4.1/../../../../arm-none-eabi/lib/armv7e-m/fpu/libm.a(lib_a-ef_log.o)
                              /home/wenda/opt/gcc-arm-none-eabi/bin/../lib/gcc/arm-none-eabi/5.4.1/../../../../arm-none-eabi/lib/armv7e-m/fpu/libm.a(lib_a-wf_log.o) (__ieee754_logf)
/home/wenda/opt/gcc-arm-none-eabi/bin/../lib/gcc/arm-none-eabi/5.4.1/../../../../arm-none-eabi/lib/armv7e-m/fpu/libm.a(lib_a-k_cos.o)
                              /home/wenda/opt/gcc-arm-none-eabi/bin/../lib/gcc/arm-none-eabi/5.4.1/../../../../arm-none-eabi/lib/armv7e-m/fpu/libm.a(lib_a-s_cos.o) (__kernel_cos)
/home/wenda/opt/gcc-arm-none-eabi/bin/../lib/gcc/arm-none-eabi/5.4.1/../../../../arm-none-eabi/lib/armv7e-m/fpu/libm.a(lib_a-k_rem_pio2.o)
                              /home/wenda/opt/gcc-arm-none-eabi/bin/../lib/gcc/arm-none-eabi/5.4.1/../../../../arm-none-eabi/lib/armv7e-m/fpu/libm.a(lib_a-e_rem_pio2.o) (__kernel_rem_pio2)
/home/wenda/opt/gcc-arm-none-eabi/bin/../lib/gcc/arm-none-eabi/5.4.1/../../../../arm-none-eabi/lib/armv7e-m/fpu/libm.a(lib_a-k_sin.o)
                              /home/wenda/opt/gcc-arm-none-eabi/bin/../lib/gcc/arm-none-eabi/5.4.1/../../../../arm-none-eabi/lib/armv7e-m/fpu/libm.a(lib_a-s_cos.o) (__kernel_sin)
/home/wenda/opt/gcc-arm-none-eabi/bin/../lib/gcc/arm-none-eabi/5.4.1/../../../../arm-none-eabi/lib/armv7e-m/fpu/libm.a(lib_a-s_fabs.o)
                              /home/wenda/opt/gcc-arm-none-eabi/bin/../lib/gcc/arm-none-eabi/5.4.1/../../../../arm-none-eabi/lib/armv7e-m/fpu/libm.a(lib_a-e_rem_pio2.o) (fabs)
/home/wenda/opt/gcc-arm-none-eabi/bin/../lib/gcc/arm-none-eabi/5.4.1/../../../../arm-none-eabi/lib/armv7e-m/fpu/libm.a(lib_a-s_finite.o)
                              /home/wenda/opt/gcc-arm-none-eabi/bin/../lib/gcc/arm-none-eabi/5.4.1/../../../../arm-none-eabi/lib/armv7e-m/fpu/libm.a(lib_a-w_exp.o) (finite)
/home/wenda/opt/gcc-arm-none-eabi/bin/../lib/gcc/arm-none-eabi/5.4.1/../../../../arm-none-eabi/lib/armv7e-m/fpu/libm.a(lib_a-s_lib_ver.o)
                              /home/wenda/opt/gcc-arm-none-eabi/bin/../lib/gcc/arm-none-eabi/5.4.1/../../../../arm-none-eabi/lib/armv7e-m/fpu/libm.a(lib_a-w_exp.o) (__fdlib_version)
/home/wenda/opt/gcc-arm-none-eabi/bin/../lib/gcc/arm-none-eabi/5.4.1/../../../../arm-none-eabi/lib/armv7e-m/fpu/libm.a(lib_a-s_matherr.o)
                              /home/wenda/opt/gcc-arm-none-eabi/bin/../lib/gcc/arm-none-eabi/5.4.1/../../../../arm-none-eabi/lib/armv7e-m/fpu/libm.a(lib_a-w_exp.o) (matherr)
/home/wenda/opt/gcc-arm-none-eabi/bin/../lib/gcc/arm-none-eabi/5.4.1/../../../../arm-none-eabi/lib/armv7e-m/fpu/libm.a(lib_a-s_nan.o)
                              /home/wenda/opt/gcc-arm-none-eabi/bin/../lib/gcc/arm-none-eabi/5.4.1/../../../../arm-none-eabi/lib/armv7e-m/fpu/libm.a(lib_a-wf_log.o) (nan)
/home/wenda/opt/gcc-arm-none-eabi/bin/../lib/gcc/arm-none-eabi/5.4.1/../../../../arm-none-eabi/lib/armv7e-m/fpu/libm.a(lib_a-s_scalbn.o)
                              /home/wenda/opt/gcc-arm-none-eabi/bin/../lib/gcc/arm-none-eabi/5.4.1/../../../../arm-none-eabi/lib/armv7e-m/fpu/libm.a(lib_a-k_rem_pio2.o) (scalbn)
/home/wenda/opt/gcc-arm-none-eabi/bin/../lib/gcc/arm-none-eabi/5.4.1/../../../../arm-none-eabi/lib/armv7e-m/fpu/libm.a(lib_a-sf_finite.o)
                              /home/wenda/opt/gcc-arm-none-eabi/bin/../lib/gcc/arm-none-eabi/5.4.1/../../../../arm-none-eabi/lib/armv7e-m/fpu/libm.a(lib_a-wf_exp.o) (finitef)
/home/wenda/opt/gcc-arm-none-eabi/bin/../lib/gcc/arm-none-eabi/5.4.1/../../../../arm-none-eabi/lib/armv7e-m/fpu/libm.a(lib_a-s_copysign.o)
                              /home/wenda/opt/gcc-arm-none-eabi/bin/../lib/gcc/arm-none-eabi/5.4.1/../../../../arm-none-eabi/lib/armv7e-m/fpu/libm.a(lib_a-s_scalbn.o) (copysign)
/home/wenda/opt/gcc-arm-none-eabi/bin/../lib/gcc/arm-none-eabi/5.4.1/armv7e-m/fpu/libgcc.a(_ashldi3.o)
                              tensorflow/lite/experimental/micro/kernels/depthwise_conv.o (__aeabi_llsl)
/home/wenda/opt/gcc-arm-none-eabi/bin/../lib/gcc/arm-none-eabi/5.4.1/armv7e-m/fpu/libgcc.a(_arm_addsubdf3.o)
                              tensorflow/lite/kernels/kernel_util.o (__aeabi_dsub)
/home/wenda/opt/gcc-arm-none-eabi/bin/../lib/gcc/arm-none-eabi/5.4.1/armv7e-m/fpu/libgcc.a(_arm_muldivdf3.o)
                              tensorflow/lite/experimental/micro/kernels/softmax.o (__aeabi_dmul)
/home/wenda/opt/gcc-arm-none-eabi/bin/../lib/gcc/arm-none-eabi/5.4.1/armv7e-m/fpu/libgcc.a(_arm_cmpdf2.o)
                              tensorflow/lite/kernels/internal/quantization_util.o (__aeabi_dcmpeq)
/home/wenda/opt/gcc-arm-none-eabi/bin/../lib/gcc/arm-none-eabi/5.4.1/armv7e-m/fpu/libgcc.a(_arm_fixdfsi.o)
                              tensorflow/lite/experimental/micro/kernels/softmax.o (__aeabi_d2iz)
/home/wenda/opt/gcc-arm-none-eabi/bin/../lib/gcc/arm-none-eabi/5.4.1/armv7e-m/fpu/libgcc.a(_arm_truncdfsf2.o)
                              tensorflow/lite/experimental/micro/kernels/softmax.o (__aeabi_d2f)
/home/wenda/opt/gcc-arm-none-eabi/bin/../lib/gcc/arm-none-eabi/5.4.1/armv7e-m/fpu/libgcc.a(_aeabi_ldivmod.o)
                              tensorflow/lite/experimental/micro/examples/micro_speech/recognize_commands.o (__aeabi_ldivmod)
/home/wenda/opt/gcc-arm-none-eabi/bin/../lib/gcc/arm-none-eabi/5.4.1/armv7e-m/fpu/libgcc.a(_fixdfdi.o)
                              tensorflow/lite/kernels/internal/quantization_util.o (__aeabi_d2lz)
/home/wenda/opt/gcc-arm-none-eabi/bin/../lib/gcc/arm-none-eabi/5.4.1/armv7e-m/fpu/libgcc.a(_fixunsdfdi.o)
                              /home/wenda/opt/gcc-arm-none-eabi/bin/../lib/gcc/arm-none-eabi/5.4.1/armv7e-m/fpu/libgcc.a(_fixdfdi.o) (__aeabi_d2ulz)
/home/wenda/opt/gcc-arm-none-eabi/bin/../lib/gcc/arm-none-eabi/5.4.1/armv7e-m/fpu/libgcc.a(_udivmoddi4.o)
                              /home/wenda/opt/gcc-arm-none-eabi/bin/../lib/gcc/arm-none-eabi/5.4.1/armv7e-m/fpu/libgcc.a(_aeabi_ldivmod.o) (__udivmoddi4)
/home/wenda/opt/gcc-arm-none-eabi/bin/../lib/gcc/arm-none-eabi/5.4.1/armv7e-m/fpu/libgcc.a(unwind-arm.o)
                              tensorflow/lite/experimental/micro/micro_error_reporter.o (__aeabi_unwind_cpp_pr0)
/home/wenda/opt/gcc-arm-none-eabi/bin/../lib/gcc/arm-none-eabi/5.4.1/armv7e-m/fpu/libgcc.a(libunwind.o)
                              /home/wenda/opt/gcc-arm-none-eabi/bin/../lib/gcc/arm-none-eabi/5.4.1/armv7e-m/fpu/libgcc.a(unwind-arm.o) (restore_core_regs)
/home/wenda/opt/gcc-arm-none-eabi/bin/../lib/gcc/arm-none-eabi/5.4.1/armv7e-m/fpu/libgcc.a(pr-support.o)
                              /home/wenda/opt/gcc-arm-none-eabi/bin/../lib/gcc/arm-none-eabi/5.4.1/armv7e-m/fpu/libgcc.a(unwind-arm.o) (__gnu_unwind_execute)
/home/wenda/opt/gcc-arm-none-eabi/bin/../lib/gcc/arm-none-eabi/5.4.1/armv7e-m/fpu/libgcc.a(_dvmd_tls.o)
                              /home/wenda/opt/gcc-arm-none-eabi/bin/../lib/gcc/arm-none-eabi/5.4.1/armv7e-m/fpu/libgcc.a(_aeabi_ldivmod.o) (__aeabi_ldiv0)
/home/wenda/opt/gcc-arm-none-eabi/bin/../lib/gcc/arm-none-eabi/5.4.1/armv7e-m/fpu/libgcc.a(_arm_fixunsdfsi.o)
                              /home/wenda/opt/gcc-arm-none-eabi/bin/../lib/gcc/arm-none-eabi/5.4.1/armv7e-m/fpu/libgcc.a(_fixunsdfdi.o) (__aeabi_d2uiz)
/home/wenda/opt/gcc-arm-none-eabi/bin/../lib/gcc/arm-none-eabi/5.4.1/../../../../arm-none-eabi/lib/armv7e-m/fpu/libc_nano.a(lib_a-abort.o)
                              tensorflow/lite/experimental/micro/kernels/depthwise_conv.o (abort)
/home/wenda/opt/gcc-arm-none-eabi/bin/../lib/gcc/arm-none-eabi/5.4.1/../../../../arm-none-eabi/lib/armv7e-m/fpu/libc_nano.a(lib_a-errno.o)
                              /home/wenda/opt/gcc-arm-none-eabi/bin/../lib/gcc/arm-none-eabi/5.4.1/../../../../arm-none-eabi/lib/armv7e-m/fpu/libm.a(lib_a-w_exp.o) (__errno)
/home/wenda/opt/gcc-arm-none-eabi/bin/../lib/gcc/arm-none-eabi/5.4.1/../../../../arm-none-eabi/lib/armv7e-m/fpu/libc_nano.a(lib_a-exit.o)
                              /home/wenda/opt/gcc-arm-none-eabi/bin/../lib/gcc/arm-none-eabi/5.4.1/../../../../arm-none-eabi/lib/armv7e-m/fpu/crt0.o (exit)
/home/wenda/opt/gcc-arm-none-eabi/bin/../lib/gcc/arm-none-eabi/5.4.1/../../../../arm-none-eabi/lib/armv7e-m/fpu/libc_nano.a(lib_a-fputs.o)
                              tensorflow/lite/experimental/micro/debug_log.o (fputs)
/home/wenda/opt/gcc-arm-none-eabi/bin/../lib/gcc/arm-none-eabi/5.4.1/../../../../arm-none-eabi/lib/armv7e-m/fpu/libc_nano.a(lib_a-impure.o)
                              /home/wenda/opt/gcc-arm-none-eabi/bin/../lib/gcc/arm-none-eabi/5.4.1/../../../../arm-none-eabi/lib/armv7e-m/fpu/libc_nano.a(lib_a-exit.o) (_global_impure_ptr)
/home/wenda/opt/gcc-arm-none-eabi/bin/../lib/gcc/arm-none-eabi/5.4.1/../../../../arm-none-eabi/lib/armv7e-m/fpu/libc_nano.a(lib_a-init.o)
                              /home/wenda/opt/gcc-arm-none-eabi/bin/../lib/gcc/arm-none-eabi/5.4.1/../../../../arm-none-eabi/lib/armv7e-m/fpu/crt0.o (__libc_init_array)
/home/wenda/opt/gcc-arm-none-eabi/bin/../lib/gcc/arm-none-eabi/5.4.1/../../../../arm-none-eabi/lib/armv7e-m/fpu/libc_nano.a(lib_a-malloc.o)
                              tensorflow/lite/c/c_api_internal.o (malloc)
/home/wenda/opt/gcc-arm-none-eabi/bin/../lib/gcc/arm-none-eabi/5.4.1/../../../../arm-none-eabi/lib/armv7e-m/fpu/libc_nano.a(lib_a-memcpy-stub.o)
                              tensorflow/lite/experimental/micro/kernels/depthwise_conv.o (memcpy)
/home/wenda/opt/gcc-arm-none-eabi/bin/../lib/gcc/arm-none-eabi/5.4.1/../../../../arm-none-eabi/lib/armv7e-m/fpu/libc_nano.a(lib_a-memset.o)
                              /home/wenda/opt/gcc-arm-none-eabi/bin/../lib/gcc/arm-none-eabi/5.4.1/../../../../arm-none-eabi/lib/armv7e-m/fpu/crt0.o (memset)
/home/wenda/opt/gcc-arm-none-eabi/bin/../lib/gcc/arm-none-eabi/5.4.1/../../../../arm-none-eabi/lib/armv7e-m/fpu/libc_nano.a(lib_a-nano-freer.o)
                              /home/wenda/opt/gcc-arm-none-eabi/bin/../lib/gcc/arm-none-eabi/5.4.1/../../../../arm-none-eabi/lib/armv7e-m/fpu/libc_nano.a(lib_a-malloc.o) (_free_r)
/home/wenda/opt/gcc-arm-none-eabi/bin/../lib/gcc/arm-none-eabi/5.4.1/../../../../arm-none-eabi/lib/armv7e-m/fpu/libc_nano.a(lib_a-nano-mallocr.o)
                              /home/wenda/opt/gcc-arm-none-eabi/bin/../lib/gcc/arm-none-eabi/5.4.1/../../../../arm-none-eabi/lib/armv7e-m/fpu/libc_nano.a(lib_a-malloc.o) (_malloc_r)
/home/wenda/opt/gcc-arm-none-eabi/bin/../lib/gcc/arm-none-eabi/5.4.1/../../../../arm-none-eabi/lib/armv7e-m/fpu/libc_nano.a(lib_a-printf.o)
                              tensorflow/lite/c/c_api_internal.o (printf)
/home/wenda/opt/gcc-arm-none-eabi/bin/../lib/gcc/arm-none-eabi/5.4.1/../../../../arm-none-eabi/lib/armv7e-m/fpu/libc_nano.a(lib_a-puts.o)
                              tensorflow/lite/c/c_api_internal.o (puts)
/home/wenda/opt/gcc-arm-none-eabi/bin/../lib/gcc/arm-none-eabi/5.4.1/../../../../arm-none-eabi/lib/armv7e-m/fpu/libc_nano.a(lib_a-realloc.o)
                              tensorflow/lite/c/c_api_internal.o (realloc)
/home/wenda/opt/gcc-arm-none-eabi/bin/../lib/gcc/arm-none-eabi/5.4.1/../../../../arm-none-eabi/lib/armv7e-m/fpu/libc_nano.a(lib_a-sbrkr.o)
                              /home/wenda/opt/gcc-arm-none-eabi/bin/../lib/gcc/arm-none-eabi/5.4.1/../../../../arm-none-eabi/lib/armv7e-m/fpu/libc_nano.a(lib_a-nano-mallocr.o) (_sbrk_r)
/home/wenda/opt/gcc-arm-none-eabi/bin/../lib/gcc/arm-none-eabi/5.4.1/../../../../arm-none-eabi/lib/armv7e-m/fpu/libc_nano.a(lib_a-signal.o)
                              /home/wenda/opt/gcc-arm-none-eabi/bin/../lib/gcc/arm-none-eabi/5.4.1/../../../../arm-none-eabi/lib/armv7e-m/fpu/libc_nano.a(lib_a-abort.o) (raise)
/home/wenda/opt/gcc-arm-none-eabi/bin/../lib/gcc/arm-none-eabi/5.4.1/../../../../arm-none-eabi/lib/armv7e-m/fpu/libc_nano.a(lib_a-signalr.o)
                              /home/wenda/opt/gcc-arm-none-eabi/bin/../lib/gcc/arm-none-eabi/5.4.1/../../../../arm-none-eabi/lib/armv7e-m/fpu/libc_nano.a(lib_a-signal.o) (_kill_r)
/home/wenda/opt/gcc-arm-none-eabi/bin/../lib/gcc/arm-none-eabi/5.4.1/../../../../arm-none-eabi/lib/armv7e-m/fpu/libc_nano.a(lib_a-strcmp.o)
                              tensorflow/lite/experimental/micro/micro_mutable_op_resolver.o (strcmp)
/home/wenda/opt/gcc-arm-none-eabi/bin/../lib/gcc/arm-none-eabi/5.4.1/../../../../arm-none-eabi/lib/armv7e-m/fpu/libc_nano.a(lib_a-wbuf.o)
                              /home/wenda/opt/gcc-arm-none-eabi/bin/../lib/gcc/arm-none-eabi/5.4.1/../../../../arm-none-eabi/lib/armv7e-m/fpu/libc_nano.a(lib_a-fputs.o) (__swbuf_r)
/home/wenda/opt/gcc-arm-none-eabi/bin/../lib/gcc/arm-none-eabi/5.4.1/../../../../arm-none-eabi/lib/armv7e-m/fpu/libc_nano.a(lib_a-wsetup.o)
                              /home/wenda/opt/gcc-arm-none-eabi/bin/../lib/gcc/arm-none-eabi/5.4.1/../../../../arm-none-eabi/lib/armv7e-m/fpu/libc_nano.a(lib_a-fputs.o) (__swsetup_r)
/home/wenda/opt/gcc-arm-none-eabi/bin/../lib/gcc/arm-none-eabi/5.4.1/../../../../arm-none-eabi/lib/armv7e-m/fpu/libc_nano.a(lib_a-fflush.o)
                              /home/wenda/opt/gcc-arm-none-eabi/bin/../lib/gcc/arm-none-eabi/5.4.1/../../../../arm-none-eabi/lib/armv7e-m/fpu/libc_nano.a(lib_a-wbuf.o) (_fflush_r)
/home/wenda/opt/gcc-arm-none-eabi/bin/../lib/gcc/arm-none-eabi/5.4.1/../../../../arm-none-eabi/lib/armv7e-m/fpu/libc_nano.a(lib_a-findfp.o)
                              /home/wenda/opt/gcc-arm-none-eabi/bin/../lib/gcc/arm-none-eabi/5.4.1/../../../../arm-none-eabi/lib/armv7e-m/fpu/libc_nano.a(lib_a-fputs.o) (__sinit)
/home/wenda/opt/gcc-arm-none-eabi/bin/../lib/gcc/arm-none-eabi/5.4.1/../../../../arm-none-eabi/lib/armv7e-m/fpu/libc_nano.a(lib_a-fwalk.o)
                              /home/wenda/opt/gcc-arm-none-eabi/bin/../lib/gcc/arm-none-eabi/5.4.1/../../../../arm-none-eabi/lib/armv7e-m/fpu/libc_nano.a(lib_a-findfp.o) (_fwalk)
/home/wenda/opt/gcc-arm-none-eabi/bin/../lib/gcc/arm-none-eabi/5.4.1/../../../../arm-none-eabi/lib/armv7e-m/fpu/libc_nano.a(lib_a-makebuf.o)
                              /home/wenda/opt/gcc-arm-none-eabi/bin/../lib/gcc/arm-none-eabi/5.4.1/../../../../arm-none-eabi/lib/armv7e-m/fpu/libc_nano.a(lib_a-wsetup.o) (__smakebuf_r)
/home/wenda/opt/gcc-arm-none-eabi/bin/../lib/gcc/arm-none-eabi/5.4.1/../../../../arm-none-eabi/lib/armv7e-m/fpu/libc_nano.a(lib_a-mlock.o)
                              /home/wenda/opt/gcc-arm-none-eabi/bin/../lib/gcc/arm-none-eabi/5.4.1/../../../../arm-none-eabi/lib/armv7e-m/fpu/libc_nano.a(lib_a-nano-freer.o) (__malloc_lock)
/home/wenda/opt/gcc-arm-none-eabi/bin/../lib/gcc/arm-none-eabi/5.4.1/../../../../arm-none-eabi/lib/armv7e-m/fpu/libc_nano.a(lib_a-nano-reallocr.o)
                              /home/wenda/opt/gcc-arm-none-eabi/bin/../lib/gcc/arm-none-eabi/5.4.1/../../../../arm-none-eabi/lib/armv7e-m/fpu/libc_nano.a(lib_a-realloc.o) (_realloc_r)
/home/wenda/opt/gcc-arm-none-eabi/bin/../lib/gcc/arm-none-eabi/5.4.1/../../../../arm-none-eabi/lib/armv7e-m/fpu/libc_nano.a(lib_a-nano-vfprintf.o)
                              /home/wenda/opt/gcc-arm-none-eabi/bin/../lib/gcc/arm-none-eabi/5.4.1/../../../../arm-none-eabi/lib/armv7e-m/fpu/libc_nano.a(lib_a-printf.o) (_vfprintf_r)
/home/wenda/opt/gcc-arm-none-eabi/bin/../lib/gcc/arm-none-eabi/5.4.1/../../../../arm-none-eabi/lib/armv7e-m/fpu/libc_nano.a(lib_a-nano-vfprintf_i.o)
                              /home/wenda/opt/gcc-arm-none-eabi/bin/../lib/gcc/arm-none-eabi/5.4.1/../../../../arm-none-eabi/lib/armv7e-m/fpu/libc_nano.a(lib_a-nano-vfprintf.o) (_printf_i)
/home/wenda/opt/gcc-arm-none-eabi/bin/../lib/gcc/arm-none-eabi/5.4.1/../../../../arm-none-eabi/lib/armv7e-m/fpu/libc_nano.a(lib_a-reent.o)
                              /home/wenda/opt/gcc-arm-none-eabi/bin/../lib/gcc/arm-none-eabi/5.4.1/../../../../arm-none-eabi/lib/armv7e-m/fpu/libc_nano.a(lib_a-sbrkr.o) (errno)
/home/wenda/opt/gcc-arm-none-eabi/bin/../lib/gcc/arm-none-eabi/5.4.1/../../../../arm-none-eabi/lib/armv7e-m/fpu/libc_nano.a(lib_a-stdio.o)
                              /home/wenda/opt/gcc-arm-none-eabi/bin/../lib/gcc/arm-none-eabi/5.4.1/../../../../arm-none-eabi/lib/armv7e-m/fpu/libc_nano.a(lib_a-findfp.o) (__sread)
/home/wenda/opt/gcc-arm-none-eabi/bin/../lib/gcc/arm-none-eabi/5.4.1/../../../../arm-none-eabi/lib/armv7e-m/fpu/libc_nano.a(lib_a-writer.o)
                              /home/wenda/opt/gcc-arm-none-eabi/bin/../lib/gcc/arm-none-eabi/5.4.1/../../../../arm-none-eabi/lib/armv7e-m/fpu/libc_nano.a(lib_a-stdio.o) (_write_r)
/home/wenda/opt/gcc-arm-none-eabi/bin/../lib/gcc/arm-none-eabi/5.4.1/../../../../arm-none-eabi/lib/armv7e-m/fpu/libc_nano.a(lib_a-closer.o)
                              /home/wenda/opt/gcc-arm-none-eabi/bin/../lib/gcc/arm-none-eabi/5.4.1/../../../../arm-none-eabi/lib/armv7e-m/fpu/libc_nano.a(lib_a-stdio.o) (_close_r)
/home/wenda/opt/gcc-arm-none-eabi/bin/../lib/gcc/arm-none-eabi/5.4.1/../../../../arm-none-eabi/lib/armv7e-m/fpu/libc_nano.a(lib_a-fstatr.o)
                              /home/wenda/opt/gcc-arm-none-eabi/bin/../lib/gcc/arm-none-eabi/5.4.1/../../../../arm-none-eabi/lib/armv7e-m/fpu/libc_nano.a(lib_a-makebuf.o) (_fstat_r)
/home/wenda/opt/gcc-arm-none-eabi/bin/../lib/gcc/arm-none-eabi/5.4.1/../../../../arm-none-eabi/lib/armv7e-m/fpu/libc_nano.a(lib_a-fvwrite.o)
                              /home/wenda/opt/gcc-arm-none-eabi/bin/../lib/gcc/arm-none-eabi/5.4.1/../../../../arm-none-eabi/lib/armv7e-m/fpu/libc_nano.a(lib_a-nano-vfprintf.o) (__sfvwrite_r)
/home/wenda/opt/gcc-arm-none-eabi/bin/../lib/gcc/arm-none-eabi/5.4.1/../../../../arm-none-eabi/lib/armv7e-m/fpu/libc_nano.a(lib_a-isattyr.o)
                              /home/wenda/opt/gcc-arm-none-eabi/bin/../lib/gcc/arm-none-eabi/5.4.1/../../../../arm-none-eabi/lib/armv7e-m/fpu/libc_nano.a(lib_a-makebuf.o) (_isatty_r)
/home/wenda/opt/gcc-arm-none-eabi/bin/../lib/gcc/arm-none-eabi/5.4.1/../../../../arm-none-eabi/lib/armv7e-m/fpu/libc_nano.a(lib_a-lseekr.o)
                              /home/wenda/opt/gcc-arm-none-eabi/bin/../lib/gcc/arm-none-eabi/5.4.1/../../../../arm-none-eabi/lib/armv7e-m/fpu/libc_nano.a(lib_a-stdio.o) (_lseek_r)
/home/wenda/opt/gcc-arm-none-eabi/bin/../lib/gcc/arm-none-eabi/5.4.1/../../../../arm-none-eabi/lib/armv7e-m/fpu/libc_nano.a(lib_a-memchr.o)
                              /home/wenda/opt/gcc-arm-none-eabi/bin/../lib/gcc/arm-none-eabi/5.4.1/../../../../arm-none-eabi/lib/armv7e-m/fpu/libc_nano.a(lib_a-nano-vfprintf.o) (memchr)
/home/wenda/opt/gcc-arm-none-eabi/bin/../lib/gcc/arm-none-eabi/5.4.1/../../../../arm-none-eabi/lib/armv7e-m/fpu/libc_nano.a(lib_a-memmove.o)
                              /home/wenda/opt/gcc-arm-none-eabi/bin/../lib/gcc/arm-none-eabi/5.4.1/../../../../arm-none-eabi/lib/armv7e-m/fpu/libc_nano.a(lib_a-fvwrite.o) (memmove)
/home/wenda/opt/gcc-arm-none-eabi/bin/../lib/gcc/arm-none-eabi/5.4.1/../../../../arm-none-eabi/lib/armv7e-m/fpu/libc_nano.a(lib_a-nano-msizer.o)
                              /home/wenda/opt/gcc-arm-none-eabi/bin/../lib/gcc/arm-none-eabi/5.4.1/../../../../arm-none-eabi/lib/armv7e-m/fpu/libc_nano.a(lib_a-nano-reallocr.o) (_malloc_usable_size_r)
/home/wenda/opt/gcc-arm-none-eabi/bin/../lib/gcc/arm-none-eabi/5.4.1/../../../../arm-none-eabi/lib/armv7e-m/fpu/libc_nano.a(lib_a-readr.o)
                              /home/wenda/opt/gcc-arm-none-eabi/bin/../lib/gcc/arm-none-eabi/5.4.1/../../../../arm-none-eabi/lib/armv7e-m/fpu/libc_nano.a(lib_a-stdio.o) (_read_r)
/home/wenda/opt/gcc-arm-none-eabi/bin/../lib/gcc/arm-none-eabi/5.4.1/../../../../arm-none-eabi/lib/armv7e-m/fpu/libnosys.a(close.o)
                              /home/wenda/opt/gcc-arm-none-eabi/bin/../lib/gcc/arm-none-eabi/5.4.1/../../../../arm-none-eabi/lib/armv7e-m/fpu/libc_nano.a(lib_a-closer.o) (_close)
/home/wenda/opt/gcc-arm-none-eabi/bin/../lib/gcc/arm-none-eabi/5.4.1/../../../../arm-none-eabi/lib/armv7e-m/fpu/libnosys.a(fstat.o)
                              /home/wenda/opt/gcc-arm-none-eabi/bin/../lib/gcc/arm-none-eabi/5.4.1/../../../../arm-none-eabi/lib/armv7e-m/fpu/libc_nano.a(lib_a-fstatr.o) (_fstat)
/home/wenda/opt/gcc-arm-none-eabi/bin/../lib/gcc/arm-none-eabi/5.4.1/../../../../arm-none-eabi/lib/armv7e-m/fpu/libnosys.a(getpid.o)
                              /home/wenda/opt/gcc-arm-none-eabi/bin/../lib/gcc/arm-none-eabi/5.4.1/../../../../arm-none-eabi/lib/armv7e-m/fpu/libc_nano.a(lib_a-signalr.o) (_getpid)
/home/wenda/opt/gcc-arm-none-eabi/bin/../lib/gcc/arm-none-eabi/5.4.1/../../../../arm-none-eabi/lib/armv7e-m/fpu/libnosys.a(isatty.o)
                              /home/wenda/opt/gcc-arm-none-eabi/bin/../lib/gcc/arm-none-eabi/5.4.1/../../../../arm-none-eabi/lib/armv7e-m/fpu/libc_nano.a(lib_a-isattyr.o) (_isatty)
/home/wenda/opt/gcc-arm-none-eabi/bin/../lib/gcc/arm-none-eabi/5.4.1/../../../../arm-none-eabi/lib/armv7e-m/fpu/libnosys.a(kill.o)
                              /home/wenda/opt/gcc-arm-none-eabi/bin/../lib/gcc/arm-none-eabi/5.4.1/../../../../arm-none-eabi/lib/armv7e-m/fpu/libc_nano.a(lib_a-signalr.o) (_kill)
/home/wenda/opt/gcc-arm-none-eabi/bin/../lib/gcc/arm-none-eabi/5.4.1/../../../../arm-none-eabi/lib/armv7e-m/fpu/libnosys.a(lseek.o)
                              /home/wenda/opt/gcc-arm-none-eabi/bin/../lib/gcc/arm-none-eabi/5.4.1/../../../../arm-none-eabi/lib/armv7e-m/fpu/libc_nano.a(lib_a-lseekr.o) (_lseek)
/home/wenda/opt/gcc-arm-none-eabi/bin/../lib/gcc/arm-none-eabi/5.4.1/../../../../arm-none-eabi/lib/armv7e-m/fpu/libnosys.a(read.o)
                              /home/wenda/opt/gcc-arm-none-eabi/bin/../lib/gcc/arm-none-eabi/5.4.1/../../../../arm-none-eabi/lib/armv7e-m/fpu/libc_nano.a(lib_a-readr.o) (_read)
/home/wenda/opt/gcc-arm-none-eabi/bin/../lib/gcc/arm-none-eabi/5.4.1/../../../../arm-none-eabi/lib/armv7e-m/fpu/libnosys.a(sbrk.o)
                              /home/wenda/opt/gcc-arm-none-eabi/bin/../lib/gcc/arm-none-eabi/5.4.1/../../../../arm-none-eabi/lib/armv7e-m/fpu/libc_nano.a(lib_a-sbrkr.o) (_sbrk)
/home/wenda/opt/gcc-arm-none-eabi/bin/../lib/gcc/arm-none-eabi/5.4.1/../../../../arm-none-eabi/lib/armv7e-m/fpu/libnosys.a(write.o)
                              /home/wenda/opt/gcc-arm-none-eabi/bin/../lib/gcc/arm-none-eabi/5.4.1/../../../../arm-none-eabi/lib/armv7e-m/fpu/libc_nano.a(lib_a-writer.o) (_write)
/home/wenda/opt/gcc-arm-none-eabi/bin/../lib/gcc/arm-none-eabi/5.4.1/../../../../arm-none-eabi/lib/armv7e-m/fpu/libnosys.a(_exit.o)
                              /home/wenda/opt/gcc-arm-none-eabi/bin/../lib/gcc/arm-none-eabi/5.4.1/../../../../arm-none-eabi/lib/armv7e-m/fpu/libc_nano.a(lib_a-abort.o) (_exit)

Allocating common symbols
Common symbol       size              file

errno               0x4               /home/wenda/opt/gcc-arm-none-eabi/bin/../lib/gcc/arm-none-eabi/5.4.1/../../../../arm-none-eabi/lib/armv7e-m/fpu/libc_nano.a(lib_a-reent.o)

Discarded input sections

 .text          0x00000000        0x0 /home/wenda/opt/gcc-arm-none-eabi/bin/../lib/gcc/arm-none-eabi/5.4.1/armv7e-m/fpu/crti.o
 .data          0x00000000        0x0 /home/wenda/opt/gcc-arm-none-eabi/bin/../lib/gcc/arm-none-eabi/5.4.1/armv7e-m/fpu/crti.o
 .bss           0x00000000        0x0 /home/wenda/opt/gcc-arm-none-eabi/bin/../lib/gcc/arm-none-eabi/5.4.1/armv7e-m/fpu/crti.o
 .data          0x00000000        0x4 /home/wenda/opt/gcc-arm-none-eabi/bin/../lib/gcc/arm-none-eabi/5.4.1/armv7e-m/fpu/crtbegin.o
 .data          0x00000000        0x0 /home/wenda/opt/gcc-arm-none-eabi/bin/../lib/gcc/arm-none-eabi/5.4.1/../../../../arm-none-eabi/lib/armv7e-m/fpu/crt0.o
 .bss           0x00000000        0x0 /home/wenda/opt/gcc-arm-none-eabi/bin/../lib/gcc/arm-none-eabi/5.4.1/../../../../arm-none-eabi/lib/armv7e-m/fpu/crt0.o
 .ARM.extab     0x00000000        0x0 /home/wenda/opt/gcc-arm-none-eabi/bin/../lib/gcc/arm-none-eabi/5.4.1/../../../../arm-none-eabi/lib/armv7e-m/fpu/crt0.o
 .group         0x00000000       0x10 tensorflow/lite/experimental/micro/micro_error_reporter.o
 .group         0x00000000        0x8 tensorflow/lite/experimental/micro/micro_error_reporter.o
 .group         0x00000000        0x8 tensorflow/lite/experimental/micro/micro_error_reporter.o
 .data          0x00000000        0x0 tensorflow/lite/experimental/micro/micro_error_reporter.o
 .bss           0x00000000        0x0 tensorflow/lite/experimental/micro/micro_error_reporter.o
 .ARM.extab     0x00000000        0x0 tensorflow/lite/experimental/micro/micro_error_reporter.o
 .group         0x00000000       0x10 tensorflow/lite/experimental/micro/micro_mutable_op_resolver.o
 .group         0x00000000        0x8 tensorflow/lite/experimental/micro/micro_mutable_op_resolver.o
 .group         0x00000000        0x8 tensorflow/lite/experimental/micro/micro_mutable_op_resolver.o
 .data          0x00000000        0x4 tensorflow/lite/experimental/micro/micro_mutable_op_resolver.o
 .bss           0x00000000        0x0 tensorflow/lite/experimental/micro/micro_mutable_op_resolver.o
 .ARM.extab     0x00000000        0x0 tensorflow/lite/experimental/micro/micro_mutable_op_resolver.o
 .rodata.str1.1
                0x00000000       0x12 tensorflow/lite/experimental/micro/micro_mutable_op_resolver.o
 .group         0x00000000       0x10 tensorflow/lite/experimental/micro/simple_tensor_allocator.o
 .group         0x00000000       0x10 tensorflow/lite/experimental/micro/simple_tensor_allocator.o
 .group         0x00000000       0x10 tensorflow/lite/experimental/micro/simple_tensor_allocator.o
 .data          0x00000000        0x4 tensorflow/lite/experimental/micro/simple_tensor_allocator.o
 .bss           0x00000000        0x0 tensorflow/lite/experimental/micro/simple_tensor_allocator.o
 .ARM.extab     0x00000000        0x0 tensorflow/lite/experimental/micro/simple_tensor_allocator.o
 .data          0x00000000        0x0 tensorflow/lite/experimental/micro/debug_log.o
 .bss           0x00000000        0x0 tensorflow/lite/experimental/micro/debug_log.o
 .ARM.extab     0x00000000        0x0 tensorflow/lite/experimental/micro/debug_log.o
 .data          0x00000000        0x0 tensorflow/lite/experimental/micro/debug_log_numbers.o
 .bss           0x00000000        0x0 tensorflow/lite/experimental/micro/debug_log_numbers.o
 .ARM.extab     0x00000000        0x0 tensorflow/lite/experimental/micro/debug_log_numbers.o
 .group         0x00000000       0x10 tensorflow/lite/experimental/micro/micro_interpreter.o
 .group         0x00000000       0x10 tensorflow/lite/experimental/micro/micro_interpreter.o
 .group         0x00000000       0x10 tensorflow/lite/experimental/micro/micro_interpreter.o
 .group         0x00000000        0x8 tensorflow/lite/experimental/micro/micro_interpreter.o
 .group         0x00000000        0x8 tensorflow/lite/experimental/micro/micro_interpreter.o
 .group         0x00000000        0x8 tensorflow/lite/experimental/micro/micro_interpreter.o
 .data          0x00000000        0x4 tensorflow/lite/experimental/micro/micro_interpreter.o
 .bss           0x00000000        0x0 tensorflow/lite/experimental/micro/micro_interpreter.o
 .text._ZNK11flatbuffers5Table22GetOptionalFieldOffsetEt
                0x00000000       0x10 tensorflow/lite/experimental/micro/micro_interpreter.o
 .ARM.extab.text._ZNK11flatbuffers5Table22GetOptionalFieldOffsetEt
                0x00000000        0x0 tensorflow/lite/experimental/micro/micro_interpreter.o
 .ARM.exidx.text._ZNK11flatbuffers5Table22GetOptionalFieldOffsetEt
                0x00000000        0x8 tensorflow/lite/experimental/micro/micro_interpreter.o
 .group         0x00000000       0x10 tensorflow/lite/experimental/micro/kernels/depthwise_conv.o
 .group         0x00000000       0x10 tensorflow/lite/experimental/micro/kernels/depthwise_conv.o
 .group         0x00000000       0x10 tensorflow/lite/experimental/micro/kernels/depthwise_conv.o
 .group         0x00000000       0x10 tensorflow/lite/experimental/micro/kernels/depthwise_conv.o
 .group         0x00000000       0x10 tensorflow/lite/experimental/micro/kernels/depthwise_conv.o
 .bss           0x00000000        0x0 tensorflow/lite/experimental/micro/kernels/depthwise_conv.o
 .group         0x00000000       0x10 tensorflow/lite/experimental/micro/kernels/softmax.o
 .group         0x00000000       0x10 tensorflow/lite/experimental/micro/kernels/softmax.o
 .group         0x00000000       0x10 tensorflow/lite/experimental/micro/kernels/softmax.o
 .group         0x00000000       0x10 tensorflow/lite/experimental/micro/kernels/softmax.o
 .group         0x00000000       0x10 tensorflow/lite/experimental/micro/kernels/softmax.o
 .group         0x00000000       0x10 tensorflow/lite/experimental/micro/kernels/softmax.o
 .group         0x00000000       0x10 tensorflow/lite/experimental/micro/kernels/softmax.o
 .group         0x00000000       0x10 tensorflow/lite/experimental/micro/kernels/softmax.o
 .group         0x00000000       0x10 tensorflow/lite/experimental/micro/kernels/softmax.o
 .group         0x00000000       0x10 tensorflow/lite/experimental/micro/kernels/softmax.o
 .group         0x00000000       0x10 tensorflow/lite/experimental/micro/kernels/softmax.o
 .group         0x00000000       0x10 tensorflow/lite/experimental/micro/kernels/softmax.o
 .group         0x00000000       0x10 tensorflow/lite/experimental/micro/kernels/softmax.o
 .group         0x00000000       0x10 tensorflow/lite/experimental/micro/kernels/softmax.o
 .bss           0x00000000        0x0 tensorflow/lite/experimental/micro/kernels/softmax.o
 .text._ZN6tflite12RuntimeShapeD2Ev
                0x00000000        0xe tensorflow/lite/experimental/micro/kernels/softmax.o
 .ARM.extab.text._ZN6tflite12RuntimeShapeD2Ev
                0x00000000       0x10 tensorflow/lite/experimental/micro/kernels/softmax.o
 .ARM.exidx.text._ZN6tflite12RuntimeShapeD2Ev
                0x00000000        0x8 tensorflow/lite/experimental/micro/kernels/softmax.o
 .text._ZN6tflite14GetTensorShapeEPK12TfLiteTensor
                0x00000000       0x1c tensorflow/lite/experimental/micro/kernels/softmax.o
 .ARM.extab.text._ZN6tflite14GetTensorShapeEPK12TfLiteTensor
                0x00000000        0x0 tensorflow/lite/experimental/micro/kernels/softmax.o
 .ARM.exidx.text._ZN6tflite14GetTensorShapeEPK12TfLiteTensor
                0x00000000        0x8 tensorflow/lite/experimental/micro/kernels/softmax.o
 .group         0x00000000       0x10 tensorflow/lite/experimental/micro/kernels/all_ops_resolver.o
 .group         0x00000000        0x8 tensorflow/lite/experimental/micro/kernels/all_ops_resolver.o
 .group         0x00000000        0x8 tensorflow/lite/experimental/micro/kernels/all_ops_resolver.o
 .group         0x00000000        0x8 tensorflow/lite/experimental/micro/kernels/all_ops_resolver.o
 .data          0x00000000        0x4 tensorflow/lite/experimental/micro/kernels/all_ops_resolver.o
 .bss           0x00000000        0x0 tensorflow/lite/experimental/micro/kernels/all_ops_resolver.o
 .ARM.extab     0x00000000        0x0 tensorflow/lite/experimental/micro/kernels/all_ops_resolver.o
 .rodata.str1.1
                0x00000000       0x12 tensorflow/lite/experimental/micro/kernels/all_ops_resolver.o
 .group         0x00000000       0x10 tensorflow/lite/experimental/micro/kernels/fully_connected.o
 .group         0x00000000       0x10 tensorflow/lite/experimental/micro/kernels/fully_connected.o
 .group         0x00000000       0x10 tensorflow/lite/experimental/micro/kernels/fully_connected.o
 .group         0x00000000       0x10 tensorflow/lite/experimental/micro/kernels/fully_connected.o
 .group         0x00000000       0x10 tensorflow/lite/experimental/micro/kernels/fully_connected.o
 .bss           0x00000000        0x0 tensorflow/lite/experimental/micro/kernels/fully_connected.o
 .text._ZN6tflite12RuntimeShapeD2Ev
                0x00000000        0xe tensorflow/lite/experimental/micro/kernels/fully_connected.o
 .ARM.extab.text._ZN6tflite12RuntimeShapeD2Ev
                0x00000000       0x10 tensorflow/lite/experimental/micro/kernels/fully_connected.o
 .ARM.exidx.text._ZN6tflite12RuntimeShapeD2Ev
                0x00000000        0x8 tensorflow/lite/experimental/micro/kernels/fully_connected.o
 .text._ZNK6tflite12RuntimeShape4DimsEi
                0x00000000       0x14 tensorflow/lite/experimental/micro/kernels/fully_connected.o
 .ARM.extab.text._ZNK6tflite12RuntimeShape4DimsEi
                0x00000000        0x0 tensorflow/lite/experimental/micro/kernels/fully_connected.o
 .ARM.exidx.text._ZNK6tflite12RuntimeShape4DimsEi
                0x00000000        0x8 tensorflow/lite/experimental/micro/kernels/fully_connected.o
 .text._ZN6tflite15FlatSizeSkipDimERKNS_12RuntimeShapeEi
                0x00000000       0x26 tensorflow/lite/experimental/micro/kernels/fully_connected.o
 .ARM.extab.text._ZN6tflite15FlatSizeSkipDimERKNS_12RuntimeShapeEi
                0x00000000        0x0 tensorflow/lite/experimental/micro/kernels/fully_connected.o
 .ARM.exidx.text._ZN6tflite15FlatSizeSkipDimERKNS_12RuntimeShapeEi
                0x00000000        0x8 tensorflow/lite/experimental/micro/kernels/fully_connected.o
 .text._ZN6tflite14GetTensorShapeEPK12TfLiteTensor
                0x00000000       0x26 tensorflow/lite/experimental/micro/kernels/fully_connected.o
 .ARM.extab.text._ZN6tflite14GetTensorShapeEPK12TfLiteTensor
                0x00000000        0x0 tensorflow/lite/experimental/micro/kernels/fully_connected.o
 .ARM.exidx.text._ZN6tflite14GetTensorShapeEPK12TfLiteTensor
                0x00000000        0x8 tensorflow/lite/experimental/micro/kernels/fully_connected.o
 .data          0x00000000        0x0 tensorflow/lite/c/c_api_internal.o
 .bss           0x00000000        0x0 tensorflow/lite/c/c_api_internal.o
 .data          0x00000000        0x0 tensorflow/lite/core/api/error_reporter.o
 .bss           0x00000000        0x0 tensorflow/lite/core/api/error_reporter.o
 .group         0x00000000       0x10 tensorflow/lite/core/api/flatbuffer_conversions.o
 .group         0x00000000       0x10 tensorflow/lite/core/api/flatbuffer_conversions.o
 .group         0x00000000       0x10 tensorflow/lite/core/api/flatbuffer_conversions.o
 .group         0x00000000       0x10 tensorflow/lite/core/api/flatbuffer_conversions.o
 .group         0x00000000       0x10 tensorflow/lite/core/api/flatbuffer_conversions.o
 .group         0x00000000       0x10 tensorflow/lite/core/api/flatbuffer_conversions.o
 .group         0x00000000       0x10 tensorflow/lite/core/api/flatbuffer_conversions.o
 .group         0x00000000       0x10 tensorflow/lite/core/api/flatbuffer_conversions.o
 .group         0x00000000       0x10 tensorflow/lite/core/api/flatbuffer_conversions.o
 .group         0x00000000       0x10 tensorflow/lite/core/api/flatbuffer_conversions.o
 .group         0x00000000       0x10 tensorflow/lite/core/api/flatbuffer_conversions.o
 .group         0x00000000       0x10 tensorflow/lite/core/api/flatbuffer_conversions.o
 .group         0x00000000       0x10 tensorflow/lite/core/api/flatbuffer_conversions.o
 .group         0x00000000       0x10 tensorflow/lite/core/api/flatbuffer_conversions.o
 .group         0x00000000       0x10 tensorflow/lite/core/api/flatbuffer_conversions.o
 .group         0x00000000        0x8 tensorflow/lite/core/api/flatbuffer_conversions.o
 .data          0x00000000        0x4 tensorflow/lite/core/api/flatbuffer_conversions.o
 .bss           0x00000000        0x0 tensorflow/lite/core/api/flatbuffer_conversions.o
 .text._ZNK11flatbuffers5Table22GetOptionalFieldOffsetEt
                0x00000000       0x10 tensorflow/lite/core/api/flatbuffer_conversions.o
 .ARM.extab.text._ZNK11flatbuffers5Table22GetOptionalFieldOffsetEt
                0x00000000        0x0 tensorflow/lite/core/api/flatbuffer_conversions.o
 .ARM.exidx.text._ZNK11flatbuffers5Table22GetOptionalFieldOffsetEt
                0x00000000        0x8 tensorflow/lite/core/api/flatbuffer_conversions.o
 .group         0x00000000       0x10 tensorflow/lite/core/api/op_resolver.o
 .group         0x00000000        0x8 tensorflow/lite/core/api/op_resolver.o
 .data          0x00000000        0x4 tensorflow/lite/core/api/op_resolver.o
 .bss           0x00000000        0x0 tensorflow/lite/core/api/op_resolver.o
 .text._ZNK11flatbuffers5Table22GetOptionalFieldOffsetEt
                0x00000000       0x10 tensorflow/lite/core/api/op_resolver.o
 .ARM.extab.text._ZNK11flatbuffers5Table22GetOptionalFieldOffsetEt
                0x00000000        0x0 tensorflow/lite/core/api/op_resolver.o
 .ARM.exidx.text._ZNK11flatbuffers5Table22GetOptionalFieldOffsetEt
                0x00000000        0x8 tensorflow/lite/core/api/op_resolver.o
 .ARM.extab     0x00000000        0x0 tensorflow/lite/core/api/op_resolver.o
 .rodata._ZZN6tflite24EnumNamesBuiltinOperatorEvE5names
                0x00000000      0x1a4 tensorflow/lite/core/api/op_resolver.o
 .data          0x00000000        0x0 tensorflow/lite/kernels/kernel_util.o
 .bss           0x00000000        0x0 tensorflow/lite/kernels/kernel_util.o
 .data          0x00000000        0x0 tensorflow/lite/kernels/internal/quantization_util.o
 .bss           0x00000000        0x0 tensorflow/lite/kernels/internal/quantization_util.o
 .text          0x00000000        0x0 tensorflow/lite/experimental/micro/examples/micro_speech/model_settings.o
 .data          0x00000000       0x10 tensorflow/lite/experimental/micro/examples/micro_speech/model_settings.o
 .bss           0x00000000        0x0 tensorflow/lite/experimental/micro/examples/micro_speech/model_settings.o
 .rodata.str1.1
                0x00000000       0x17 tensorflow/lite/experimental/micro/examples/micro_speech/model_settings.o
 .text          0x00000000       0x38 tensorflow/lite/experimental/micro/examples/micro_speech/audio_provider.o
 .data          0x00000000        0x0 tensorflow/lite/experimental/micro/examples/micro_speech/audio_provider.o
 .bss           0x00000000      0x404 tensorflow/lite/experimental/micro/examples/micro_speech/audio_provider.o
 .ARM.extab     0x00000000        0x0 tensorflow/lite/experimental/micro/examples/micro_speech/audio_provider.o
 .ARM.exidx     0x00000000       0x10 tensorflow/lite/experimental/micro/examples/micro_speech/audio_provider.o
 .text          0x00000000      0x108 tensorflow/lite/experimental/micro/examples/micro_speech/feature_provider.o
 .data          0x00000000        0x0 tensorflow/lite/experimental/micro/examples/micro_speech/feature_provider.o
 .bss           0x00000000        0x0 tensorflow/lite/experimental/micro/examples/micro_speech/feature_provider.o
 .ARM.extab     0x00000000        0x0 tensorflow/lite/experimental/micro/examples/micro_speech/feature_provider.o
 .ARM.exidx     0x00000000       0x18 tensorflow/lite/experimental/micro/examples/micro_speech/feature_provider.o
 .rodata.str1.1
                0x00000000       0x58 tensorflow/lite/experimental/micro/examples/micro_speech/feature_provider.o
 .text          0x00000000      0x2d0 tensorflow/lite/experimental/micro/examples/micro_speech/preprocessor.o
 .data          0x00000000        0x0 tensorflow/lite/experimental/micro/examples/micro_speech/preprocessor.o
 .bss           0x00000000        0x0 tensorflow/lite/experimental/micro/examples/micro_speech/preprocessor.o
 .ARM.extab     0x00000000        0xc tensorflow/lite/experimental/micro/examples/micro_speech/preprocessor.o
 .ARM.exidx     0x00000000       0x18 tensorflow/lite/experimental/micro/examples/micro_speech/preprocessor.o
 .rodata.str1.1
                0x00000000       0x47 tensorflow/lite/experimental/micro/examples/micro_speech/preprocessor.o
 .text          0x00000000        0x0 tensorflow/lite/experimental/micro/examples/micro_speech/no_features_data.o
 .data          0x00000000        0x0 tensorflow/lite/experimental/micro/examples/micro_speech/no_features_data.o
 .bss           0x00000000        0x0 tensorflow/lite/experimental/micro/examples/micro_speech/no_features_data.o
 .rodata        0x00000000      0x844 tensorflow/lite/experimental/micro/examples/micro_speech/no_features_data.o
 .text          0x00000000        0x0 tensorflow/lite/experimental/micro/examples/micro_speech/yes_features_data.o
 .data          0x00000000        0x0 tensorflow/lite/experimental/micro/examples/micro_speech/yes_features_data.o
 .bss           0x00000000        0x0 tensorflow/lite/experimental/micro/examples/micro_speech/yes_features_data.o
 .rodata        0x00000000      0x844 tensorflow/lite/experimental/micro/examples/micro_speech/yes_features_data.o
 .text          0x00000000        0x0 tensorflow/lite/experimental/micro/examples/micro_speech/tiny_conv_model_data.o
 .data          0x00000000        0x0 tensorflow/lite/experimental/micro/examples/micro_speech/tiny_conv_model_data.o
 .bss           0x00000000        0x0 tensorflow/lite/experimental/micro/examples/micro_speech/tiny_conv_model_data.o
 .rodata        0x00000000     0x4d5c tensorflow/lite/experimental/micro/examples/micro_speech/tiny_conv_model_data.o
 .group         0x00000000       0x10 tensorflow/lite/experimental/micro/examples/micro_speech/recognize_commands.o
 .text          0x00000000      0x2a4 tensorflow/lite/experimental/micro/examples/micro_speech/recognize_commands.o
 .data          0x00000000        0x0 tensorflow/lite/experimental/micro/examples/micro_speech/recognize_commands.o
 .bss           0x00000000        0x0 tensorflow/lite/experimental/micro/examples/micro_speech/recognize_commands.o
 .text._ZN20PreviousResultsQueue6ResultC2Ev
                0x00000000        0xe tensorflow/lite/experimental/micro/examples/micro_speech/recognize_commands.o
 .ARM.extab.text._ZN20PreviousResultsQueue6ResultC2Ev
                0x00000000        0x0 tensorflow/lite/experimental/micro/examples/micro_speech/recognize_commands.o
 .ARM.exidx.text._ZN20PreviousResultsQueue6ResultC2Ev
                0x00000000        0x8 tensorflow/lite/experimental/micro/examples/micro_speech/recognize_commands.o
 .ARM.extab     0x00000000        0x0 tensorflow/lite/experimental/micro/examples/micro_speech/recognize_commands.o
 .ARM.exidx     0x00000000       0x10 tensorflow/lite/experimental/micro/examples/micro_speech/recognize_commands.o
 .rodata.str1.1
                0x00000000      0x1b3 tensorflow/lite/experimental/micro/examples/micro_speech/recognize_commands.o
 .data          0x00000000        0x4 machinelearning.o
 .bss           0x00000000        0x0 machinelearning.o
 .text          0x00000000        0x0 tfmicro_models.o
 .bss           0x00000000        0x0 tfmicro_models.o
 .text          0x00000000        0x0 tf_micro_model_backup.o
 .bss           0x00000000        0x0 tf_micro_model_backup.o
 .text          0x00000000        0x0 main.o
 .data          0x00000000        0x0 main.o
 .bss           0x00000000        0x0 main.o
 .text          0x00000000        0x0 /home/wenda/opt/gcc-arm-none-eabi/bin/../lib/gcc/arm-none-eabi/5.4.1/../../../../arm-none-eabi/lib/armv7e-m/fpu/libstdc++_nano.a(del_op.o)
 .data          0x00000000        0x0 /home/wenda/opt/gcc-arm-none-eabi/bin/../lib/gcc/arm-none-eabi/5.4.1/../../../../arm-none-eabi/lib/armv7e-m/fpu/libstdc++_nano.a(del_op.o)
 .bss           0x00000000        0x0 /home/wenda/opt/gcc-arm-none-eabi/bin/../lib/gcc/arm-none-eabi/5.4.1/../../../../arm-none-eabi/lib/armv7e-m/fpu/libstdc++_nano.a(del_op.o)
 .text          0x00000000        0x0 /home/wenda/opt/gcc-arm-none-eabi/bin/../lib/gcc/arm-none-eabi/5.4.1/../../../../arm-none-eabi/lib/armv7e-m/fpu/libstdc++_nano.a(si_class_type_info.o)
 .data          0x00000000        0x0 /home/wenda/opt/gcc-arm-none-eabi/bin/../lib/gcc/arm-none-eabi/5.4.1/../../../../arm-none-eabi/lib/armv7e-m/fpu/libstdc++_nano.a(si_class_type_info.o)
 .bss           0x00000000        0x0 /home/wenda/opt/gcc-arm-none-eabi/bin/../lib/gcc/arm-none-eabi/5.4.1/../../../../arm-none-eabi/lib/armv7e-m/fpu/libstdc++_nano.a(si_class_type_info.o)
 .text          0x00000000        0x0 /home/wenda/opt/gcc-arm-none-eabi/bin/../lib/gcc/arm-none-eabi/5.4.1/../../../../arm-none-eabi/lib/armv7e-m/fpu/libstdc++_nano.a(eh_personality.o)
 .data          0x00000000        0x0 /home/wenda/opt/gcc-arm-none-eabi/bin/../lib/gcc/arm-none-eabi/5.4.1/../../../../arm-none-eabi/lib/armv7e-m/fpu/libstdc++_nano.a(eh_personality.o)
 .bss           0x00000000        0x0 /home/wenda/opt/gcc-arm-none-eabi/bin/../lib/gcc/arm-none-eabi/5.4.1/../../../../arm-none-eabi/lib/armv7e-m/fpu/libstdc++_nano.a(eh_personality.o)
 .text          0x00000000        0x0 /home/wenda/opt/gcc-arm-none-eabi/bin/../lib/gcc/arm-none-eabi/5.4.1/../../../../arm-none-eabi/lib/armv7e-m/fpu/libstdc++_nano.a(eh_terminate.o)
 .data          0x00000000        0x0 /home/wenda/opt/gcc-arm-none-eabi/bin/../lib/gcc/arm-none-eabi/5.4.1/../../../../arm-none-eabi/lib/armv7e-m/fpu/libstdc++_nano.a(eh_terminate.o)
 .bss           0x00000000        0x0 /home/wenda/opt/gcc-arm-none-eabi/bin/../lib/gcc/arm-none-eabi/5.4.1/../../../../arm-none-eabi/lib/armv7e-m/fpu/libstdc++_nano.a(eh_terminate.o)
 .text._ZSt13set_terminatePFvvE
                0x00000000       0x20 /home/wenda/opt/gcc-arm-none-eabi/bin/../lib/gcc/arm-none-eabi/5.4.1/../../../../arm-none-eabi/lib/armv7e-m/fpu/libstdc++_nano.a(eh_terminate.o)
 .text._ZSt14set_unexpectedPFvvE
                0x00000000       0x20 /home/wenda/opt/gcc-arm-none-eabi/bin/../lib/gcc/arm-none-eabi/5.4.1/../../../../arm-none-eabi/lib/armv7e-m/fpu/libstdc++_nano.a(eh_terminate.o)
 .text          0x00000000        0x0 /home/wenda/opt/gcc-arm-none-eabi/bin/../lib/gcc/arm-none-eabi/5.4.1/../../../../arm-none-eabi/lib/armv7e-m/fpu/libstdc++_nano.a(tinfo.o)
 .data          0x00000000        0x0 /home/wenda/opt/gcc-arm-none-eabi/bin/../lib/gcc/arm-none-eabi/5.4.1/../../../../arm-none-eabi/lib/armv7e-m/fpu/libstdc++_nano.a(tinfo.o)
 .bss           0x00000000        0x0 /home/wenda/opt/gcc-arm-none-eabi/bin/../lib/gcc/arm-none-eabi/5.4.1/../../../../arm-none-eabi/lib/armv7e-m/fpu/libstdc++_nano.a(tinfo.o)
 .text._ZNKSt9type_info11__do_upcastEPKN10__cxxabiv117__class_type_infoEPPv
                0x00000000        0x4 /home/wenda/opt/gcc-arm-none-eabi/bin/../lib/gcc/arm-none-eabi/5.4.1/../../../../arm-none-eabi/lib/armv7e-m/fpu/libstdc++_nano.a(tinfo.o)
 .text._ZNSt9type_infoD0Ev
                0x00000000        0xc /home/wenda/opt/gcc-arm-none-eabi/bin/../lib/gcc/arm-none-eabi/5.4.1/../../../../arm-none-eabi/lib/armv7e-m/fpu/libstdc++_nano.a(tinfo.o)
 .text._ZNKSt9type_info10__do_catchEPKS_PPvj
                0x00000000        0x4 /home/wenda/opt/gcc-arm-none-eabi/bin/../lib/gcc/arm-none-eabi/5.4.1/../../../../arm-none-eabi/lib/armv7e-m/fpu/libstdc++_nano.a(tinfo.o)
 .rodata._ZTVSt9type_info
                0x00000000       0x20 /home/wenda/opt/gcc-arm-none-eabi/bin/../lib/gcc/arm-none-eabi/5.4.1/../../../../arm-none-eabi/lib/armv7e-m/fpu/libstdc++_nano.a(tinfo.o)
 .text          0x00000000        0x0 /home/wenda/opt/gcc-arm-none-eabi/bin/../lib/gcc/arm-none-eabi/5.4.1/../../../../arm-none-eabi/lib/armv7e-m/fpu/libstdc++_nano.a(eh_arm.o)
 .data          0x00000000        0x0 /home/wenda/opt/gcc-arm-none-eabi/bin/../lib/gcc/arm-none-eabi/5.4.1/../../../../arm-none-eabi/lib/armv7e-m/fpu/libstdc++_nano.a(eh_arm.o)
 .bss           0x00000000        0x0 /home/wenda/opt/gcc-arm-none-eabi/bin/../lib/gcc/arm-none-eabi/5.4.1/../../../../arm-none-eabi/lib/armv7e-m/fpu/libstdc++_nano.a(eh_arm.o)
 .text          0x00000000        0x0 /home/wenda/opt/gcc-arm-none-eabi/bin/../lib/gcc/arm-none-eabi/5.4.1/../../../../arm-none-eabi/lib/armv7e-m/fpu/libstdc++_nano.a(class_type_info.o)
 .data          0x00000000        0x0 /home/wenda/opt/gcc-arm-none-eabi/bin/../lib/gcc/arm-none-eabi/5.4.1/../../../../arm-none-eabi/lib/armv7e-m/fpu/libstdc++_nano.a(class_type_info.o)
 .bss           0x00000000        0x0 /home/wenda/opt/gcc-arm-none-eabi/bin/../lib/gcc/arm-none-eabi/5.4.1/../../../../arm-none-eabi/lib/armv7e-m/fpu/libstdc++_nano.a(class_type_info.o)
 .text          0x00000000        0x0 /home/wenda/opt/gcc-arm-none-eabi/bin/../lib/gcc/arm-none-eabi/5.4.1/../../../../arm-none-eabi/lib/armv7e-m/fpu/libstdc++_nano.a(eh_call.o)
 .data          0x00000000        0x0 /home/wenda/opt/gcc-arm-none-eabi/bin/../lib/gcc/arm-none-eabi/5.4.1/../../../../arm-none-eabi/lib/armv7e-m/fpu/libstdc++_nano.a(eh_call.o)
 .bss           0x00000000        0x0 /home/wenda/opt/gcc-arm-none-eabi/bin/../lib/gcc/arm-none-eabi/5.4.1/../../../../arm-none-eabi/lib/armv7e-m/fpu/libstdc++_nano.a(eh_call.o)
 .text          0x00000000        0x0 /home/wenda/opt/gcc-arm-none-eabi/bin/../lib/gcc/arm-none-eabi/5.4.1/../../../../arm-none-eabi/lib/armv7e-m/fpu/libstdc++_nano.a(eh_catch.o)
 .data          0x00000000        0x0 /home/wenda/opt/gcc-arm-none-eabi/bin/../lib/gcc/arm-none-eabi/5.4.1/../../../../arm-none-eabi/lib/armv7e-m/fpu/libstdc++_nano.a(eh_catch.o)
 .bss           0x00000000        0x0 /home/wenda/opt/gcc-arm-none-eabi/bin/../lib/gcc/arm-none-eabi/5.4.1/../../../../arm-none-eabi/lib/armv7e-m/fpu/libstdc++_nano.a(eh_catch.o)
 .text.__cxa_get_exception_ptr
                0x00000000        0x4 /home/wenda/opt/gcc-arm-none-eabi/bin/../lib/gcc/arm-none-eabi/5.4.1/../../../../arm-none-eabi/lib/armv7e-m/fpu/libstdc++_nano.a(eh_catch.o)
 .text.__cxa_end_catch
                0x00000000       0x4a /home/wenda/opt/gcc-arm-none-eabi/bin/../lib/gcc/arm-none-eabi/5.4.1/../../../../arm-none-eabi/lib/armv7e-m/fpu/libstdc++_nano.a(eh_catch.o)
 .text._ZSt18uncaught_exceptionv
                0x00000000       0x10 /home/wenda/opt/gcc-arm-none-eabi/bin/../lib/gcc/arm-none-eabi/5.4.1/../../../../arm-none-eabi/lib/armv7e-m/fpu/libstdc++_nano.a(eh_catch.o)
 .text          0x00000000        0x0 /home/wenda/opt/gcc-arm-none-eabi/bin/../lib/gcc/arm-none-eabi/5.4.1/../../../../arm-none-eabi/lib/armv7e-m/fpu/libstdc++_nano.a(eh_term_handler.o)
 .data          0x00000000        0x0 /home/wenda/opt/gcc-arm-none-eabi/bin/../lib/gcc/arm-none-eabi/5.4.1/../../../../arm-none-eabi/lib/armv7e-m/fpu/libstdc++_nano.a(eh_term_handler.o)
 .bss           0x00000000        0x0 /home/wenda/opt/gcc-arm-none-eabi/bin/../lib/gcc/arm-none-eabi/5.4.1/../../../../arm-none-eabi/lib/armv7e-m/fpu/libstdc++_nano.a(eh_term_handler.o)
 .text          0x00000000        0x0 /home/wenda/opt/gcc-arm-none-eabi/bin/../lib/gcc/arm-none-eabi/5.4.1/../../../../arm-none-eabi/lib/armv7e-m/fpu/libstdc++_nano.a(eh_unex_handler.o)
 .data          0x00000000        0x0 /home/wenda/opt/gcc-arm-none-eabi/bin/../lib/gcc/arm-none-eabi/5.4.1/../../../../arm-none-eabi/lib/armv7e-m/fpu/libstdc++_nano.a(eh_unex_handler.o)
 .bss           0x00000000        0x0 /home/wenda/opt/gcc-arm-none-eabi/bin/../lib/gcc/arm-none-eabi/5.4.1/../../../../arm-none-eabi/lib/armv7e-m/fpu/libstdc++_nano.a(eh_unex_handler.o)
 .text          0x00000000        0x0 /home/wenda/opt/gcc-arm-none-eabi/bin/../lib/gcc/arm-none-eabi/5.4.1/../../../../arm-none-eabi/lib/armv7e-m/fpu/libstdc++_nano.a(eh_globals.o)
 .data          0x00000000        0x0 /home/wenda/opt/gcc-arm-none-eabi/bin/../lib/gcc/arm-none-eabi/5.4.1/../../../../arm-none-eabi/lib/armv7e-m/fpu/libstdc++_nano.a(eh_globals.o)
 .bss           0x00000000        0x0 /home/wenda/opt/gcc-arm-none-eabi/bin/../lib/gcc/arm-none-eabi/5.4.1/../../../../arm-none-eabi/lib/armv7e-m/fpu/libstdc++_nano.a(eh_globals.o)
 .text.__cxa_get_globals_fast
                0x00000000        0x8 /home/wenda/opt/gcc-arm-none-eabi/bin/../lib/gcc/arm-none-eabi/5.4.1/../../../../arm-none-eabi/lib/armv7e-m/fpu/libstdc++_nano.a(eh_globals.o)
 .text          0x00000000        0x0 /home/wenda/opt/gcc-arm-none-eabi/bin/../lib/gcc/arm-none-eabi/5.4.1/../../../../arm-none-eabi/lib/armv7e-m/fpu/libstdc++_nano.a(eh_exception.o)
 .data          0x00000000        0x0 /home/wenda/opt/gcc-arm-none-eabi/bin/../lib/gcc/arm-none-eabi/5.4.1/../../../../arm-none-eabi/lib/armv7e-m/fpu/libstdc++_nano.a(eh_exception.o)
 .bss           0x00000000        0x0 /home/wenda/opt/gcc-arm-none-eabi/bin/../lib/gcc/arm-none-eabi/5.4.1/../../../../arm-none-eabi/lib/armv7e-m/fpu/libstdc++_nano.a(eh_exception.o)
 .text._ZNSt9exceptionD2Ev
                0x00000000        0x2 /home/wenda/opt/gcc-arm-none-eabi/bin/../lib/gcc/arm-none-eabi/5.4.1/../../../../arm-none-eabi/lib/armv7e-m/fpu/libstdc++_nano.a(eh_exception.o)
 .text._ZNSt13bad_exceptionD2Ev
                0x00000000        0x2 /home/wenda/opt/gcc-arm-none-eabi/bin/../lib/gcc/arm-none-eabi/5.4.1/../../../../arm-none-eabi/lib/armv7e-m/fpu/libstdc++_nano.a(eh_exception.o)
 .text._ZNKSt9exception4whatEv
                0x00000000        0x8 /home/wenda/opt/gcc-arm-none-eabi/bin/../lib/gcc/arm-none-eabi/5.4.1/../../../../arm-none-eabi/lib/armv7e-m/fpu/libstdc++_nano.a(eh_exception.o)
 .text._ZNKSt13bad_exception4whatEv
                0x00000000        0x8 /home/wenda/opt/gcc-arm-none-eabi/bin/../lib/gcc/arm-none-eabi/5.4.1/../../../../arm-none-eabi/lib/armv7e-m/fpu/libstdc++_nano.a(eh_exception.o)
 .text._ZNSt9exceptionD0Ev
                0x00000000        0xc /home/wenda/opt/gcc-arm-none-eabi/bin/../lib/gcc/arm-none-eabi/5.4.1/../../../../arm-none-eabi/lib/armv7e-m/fpu/libstdc++_nano.a(eh_exception.o)
 .text._ZNSt13bad_exceptionD0Ev
                0x00000000        0xc /home/wenda/opt/gcc-arm-none-eabi/bin/../lib/gcc/arm-none-eabi/5.4.1/../../../../arm-none-eabi/lib/armv7e-m/fpu/libstdc++_nano.a(eh_exception.o)
 .text._ZN10__cxxabiv115__forced_unwindD2Ev
                0x00000000        0x2 /home/wenda/opt/gcc-arm-none-eabi/bin/../lib/gcc/arm-none-eabi/5.4.1/../../../../arm-none-eabi/lib/armv7e-m/fpu/libstdc++_nano.a(eh_exception.o)
 .text._ZN10__cxxabiv115__forced_unwindD0Ev
                0x00000000        0xc /home/wenda/opt/gcc-arm-none-eabi/bin/../lib/gcc/arm-none-eabi/5.4.1/../../../../arm-none-eabi/lib/armv7e-m/fpu/libstdc++_nano.a(eh_exception.o)
 .text._ZN10__cxxabiv119__foreign_exceptionD2Ev
                0x00000000        0x2 /home/wenda/opt/gcc-arm-none-eabi/bin/../lib/gcc/arm-none-eabi/5.4.1/../../../../arm-none-eabi/lib/armv7e-m/fpu/libstdc++_nano.a(eh_exception.o)
 .text._ZN10__cxxabiv119__foreign_exceptionD0Ev
                0x00000000        0xc /home/wenda/opt/gcc-arm-none-eabi/bin/../lib/gcc/arm-none-eabi/5.4.1/../../../../arm-none-eabi/lib/armv7e-m/fpu/libstdc++_nano.a(eh_exception.o)
 .rodata._ZTVN10__cxxabiv115__forced_unwindE
                0x00000000       0x14 /home/wenda/opt/gcc-arm-none-eabi/bin/../lib/gcc/arm-none-eabi/5.4.1/../../../../arm-none-eabi/lib/armv7e-m/fpu/libstdc++_nano.a(eh_exception.o)
 .rodata._ZTVN10__cxxabiv119__foreign_exceptionE
                0x00000000       0x14 /home/wenda/opt/gcc-arm-none-eabi/bin/../lib/gcc/arm-none-eabi/5.4.1/../../../../arm-none-eabi/lib/armv7e-m/fpu/libstdc++_nano.a(eh_exception.o)
 .rodata.str1.1
                0x00000000       0x22 /home/wenda/opt/gcc-arm-none-eabi/bin/../lib/gcc/arm-none-eabi/5.4.1/../../../../arm-none-eabi/lib/armv7e-m/fpu/libstdc++_nano.a(eh_exception.o)
 .rodata._ZTISt9exception
                0x00000000        0x8 /home/wenda/opt/gcc-arm-none-eabi/bin/../lib/gcc/arm-none-eabi/5.4.1/../../../../arm-none-eabi/lib/armv7e-m/fpu/libstdc++_nano.a(eh_exception.o)
 .rodata._ZTVSt9exception
                0x00000000       0x14 /home/wenda/opt/gcc-arm-none-eabi/bin/../lib/gcc/arm-none-eabi/5.4.1/../../../../arm-none-eabi/lib/armv7e-m/fpu/libstdc++_nano.a(eh_exception.o)
 .rodata._ZTVSt13bad_exception
                0x00000000       0x14 /home/wenda/opt/gcc-arm-none-eabi/bin/../lib/gcc/arm-none-eabi/5.4.1/../../../../arm-none-eabi/lib/armv7e-m/fpu/libstdc++_nano.a(eh_exception.o)
 .rodata._ZTSSt9exception
                0x00000000        0xd /home/wenda/opt/gcc-arm-none-eabi/bin/../lib/gcc/arm-none-eabi/5.4.1/../../../../arm-none-eabi/lib/armv7e-m/fpu/libstdc++_nano.a(eh_exception.o)
 .rodata._ZTSSt13bad_exception
                0x00000000       0x12 /home/wenda/opt/gcc-arm-none-eabi/bin/../lib/gcc/arm-none-eabi/5.4.1/../../../../arm-none-eabi/lib/armv7e-m/fpu/libstdc++_nano.a(eh_exception.o)
 .rodata._ZTISt13bad_exception
                0x00000000        0xc /home/wenda/opt/gcc-arm-none-eabi/bin/../lib/gcc/arm-none-eabi/5.4.1/../../../../arm-none-eabi/lib/armv7e-m/fpu/libstdc++_nano.a(eh_exception.o)
 .text          0x00000000        0x0 /home/wenda/opt/gcc-arm-none-eabi/bin/../lib/gcc/arm-none-eabi/5.4.1/../../../../arm-none-eabi/lib/armv7e-m/fpu/libstdc++_nano.a(pure.o)
 .data          0x00000000        0x0 /home/wenda/opt/gcc-arm-none-eabi/bin/../lib/gcc/arm-none-eabi/5.4.1/../../../../arm-none-eabi/lib/armv7e-m/fpu/libstdc++_nano.a(pure.o)
 .bss           0x00000000        0x0 /home/wenda/opt/gcc-arm-none-eabi/bin/../lib/gcc/arm-none-eabi/5.4.1/../../../../arm-none-eabi/lib/armv7e-m/fpu/libstdc++_nano.a(pure.o)
 .text.__cxa_pure_virtual
                0x00000000        0x6 /home/wenda/opt/gcc-arm-none-eabi/bin/../lib/gcc/arm-none-eabi/5.4.1/../../../../arm-none-eabi/lib/armv7e-m/fpu/libstdc++_nano.a(pure.o)
 .text.__cxa_deleted_virtual
                0x00000000        0x6 /home/wenda/opt/gcc-arm-none-eabi/bin/../lib/gcc/arm-none-eabi/5.4.1/../../../../arm-none-eabi/lib/armv7e-m/fpu/libstdc++_nano.a(pure.o)
 .text          0x00000000        0x0 /home/wenda/opt/gcc-arm-none-eabi/bin/../lib/gcc/arm-none-eabi/5.4.1/../../../../arm-none-eabi/lib/armv7e-m/fpu/libm.a(lib_a-s_cos.o)
 .data          0x00000000        0x0 /home/wenda/opt/gcc-arm-none-eabi/bin/../lib/gcc/arm-none-eabi/5.4.1/../../../../arm-none-eabi/lib/armv7e-m/fpu/libm.a(lib_a-s_cos.o)
 .bss           0x00000000        0x0 /home/wenda/opt/gcc-arm-none-eabi/bin/../lib/gcc/arm-none-eabi/5.4.1/../../../../arm-none-eabi/lib/armv7e-m/fpu/libm.a(lib_a-s_cos.o)
 .text.cos      0x00000000       0xc0 /home/wenda/opt/gcc-arm-none-eabi/bin/../lib/gcc/arm-none-eabi/5.4.1/../../../../arm-none-eabi/lib/armv7e-m/fpu/libm.a(lib_a-s_cos.o)
 .text          0x00000000        0x0 /home/wenda/opt/gcc-arm-none-eabi/bin/../lib/gcc/arm-none-eabi/5.4.1/../../../../arm-none-eabi/lib/armv7e-m/fpu/libm.a(lib_a-s_floor.o)
 .data          0x00000000        0x0 /home/wenda/opt/gcc-arm-none-eabi/bin/../lib/gcc/arm-none-eabi/5.4.1/../../../../arm-none-eabi/lib/armv7e-m/fpu/libm.a(lib_a-s_floor.o)
 .bss           0x00000000        0x0 /home/wenda/opt/gcc-arm-none-eabi/bin/../lib/gcc/arm-none-eabi/5.4.1/../../../../arm-none-eabi/lib/armv7e-m/fpu/libm.a(lib_a-s_floor.o)
 .text          0x00000000        0x0 /home/wenda/opt/gcc-arm-none-eabi/bin/../lib/gcc/arm-none-eabi/5.4.1/../../../../arm-none-eabi/lib/armv7e-m/fpu/libm.a(lib_a-s_frexp.o)
 .data          0x00000000        0x0 /home/wenda/opt/gcc-arm-none-eabi/bin/../lib/gcc/arm-none-eabi/5.4.1/../../../../arm-none-eabi/lib/armv7e-m/fpu/libm.a(lib_a-s_frexp.o)
 .bss           0x00000000        0x0 /home/wenda/opt/gcc-arm-none-eabi/bin/../lib/gcc/arm-none-eabi/5.4.1/../../../../arm-none-eabi/lib/armv7e-m/fpu/libm.a(lib_a-s_frexp.o)
 .text          0x00000000        0x0 /home/wenda/opt/gcc-arm-none-eabi/bin/../lib/gcc/arm-none-eabi/5.4.1/../../../../arm-none-eabi/lib/armv7e-m/fpu/libm.a(lib_a-s_round.o)
 .data          0x00000000        0x0 /home/wenda/opt/gcc-arm-none-eabi/bin/../lib/gcc/arm-none-eabi/5.4.1/../../../../arm-none-eabi/lib/armv7e-m/fpu/libm.a(lib_a-s_round.o)
 .bss           0x00000000        0x0 /home/wenda/opt/gcc-arm-none-eabi/bin/../lib/gcc/arm-none-eabi/5.4.1/../../../../arm-none-eabi/lib/armv7e-m/fpu/libm.a(lib_a-s_round.o)
 .text          0x00000000        0x0 /home/wenda/opt/gcc-arm-none-eabi/bin/../lib/gcc/arm-none-eabi/5.4.1/../../../../arm-none-eabi/lib/armv7e-m/fpu/libm.a(lib_a-s_sin.o)
 .data          0x00000000        0x0 /home/wenda/opt/gcc-arm-none-eabi/bin/../lib/gcc/arm-none-eabi/5.4.1/../../../../arm-none-eabi/lib/armv7e-m/fpu/libm.a(lib_a-s_sin.o)
 .bss           0x00000000        0x0 /home/wenda/opt/gcc-arm-none-eabi/bin/../lib/gcc/arm-none-eabi/5.4.1/../../../../arm-none-eabi/lib/armv7e-m/fpu/libm.a(lib_a-s_sin.o)
 .text.sin      0x00000000       0xc0 /home/wenda/opt/gcc-arm-none-eabi/bin/../lib/gcc/arm-none-eabi/5.4.1/../../../../arm-none-eabi/lib/armv7e-m/fpu/libm.a(lib_a-s_sin.o)
 .text          0x00000000        0x0 /home/wenda/opt/gcc-arm-none-eabi/bin/../lib/gcc/arm-none-eabi/5.4.1/../../../../arm-none-eabi/lib/armv7e-m/fpu/libm.a(lib_a-sf_round.o)
 .data          0x00000000        0x0 /home/wenda/opt/gcc-arm-none-eabi/bin/../lib/gcc/arm-none-eabi/5.4.1/../../../../arm-none-eabi/lib/armv7e-m/fpu/libm.a(lib_a-sf_round.o)
 .bss           0x00000000        0x0 /home/wenda/opt/gcc-arm-none-eabi/bin/../lib/gcc/arm-none-eabi/5.4.1/../../../../arm-none-eabi/lib/armv7e-m/fpu/libm.a(lib_a-sf_round.o)
 .text.roundf   0x00000000       0x60 /home/wenda/opt/gcc-arm-none-eabi/bin/../lib/gcc/arm-none-eabi/5.4.1/../../../../arm-none-eabi/lib/armv7e-m/fpu/libm.a(lib_a-sf_round.o)
 .text          0x00000000        0x0 /home/wenda/opt/gcc-arm-none-eabi/bin/../lib/gcc/arm-none-eabi/5.4.1/../../../../arm-none-eabi/lib/armv7e-m/fpu/libm.a(lib_a-w_exp.o)
 .data          0x00000000        0x0 /home/wenda/opt/gcc-arm-none-eabi/bin/../lib/gcc/arm-none-eabi/5.4.1/../../../../arm-none-eabi/lib/armv7e-m/fpu/libm.a(lib_a-w_exp.o)
 .bss           0x00000000        0x0 /home/wenda/opt/gcc-arm-none-eabi/bin/../lib/gcc/arm-none-eabi/5.4.1/../../../../arm-none-eabi/lib/armv7e-m/fpu/libm.a(lib_a-w_exp.o)
 .text          0x00000000        0x0 /home/wenda/opt/gcc-arm-none-eabi/bin/../lib/gcc/arm-none-eabi/5.4.1/../../../../arm-none-eabi/lib/armv7e-m/fpu/libm.a(lib_a-wf_exp.o)
 .data          0x00000000        0x0 /home/wenda/opt/gcc-arm-none-eabi/bin/../lib/gcc/arm-none-eabi/5.4.1/../../../../arm-none-eabi/lib/armv7e-m/fpu/libm.a(lib_a-wf_exp.o)
 .bss           0x00000000        0x0 /home/wenda/opt/gcc-arm-none-eabi/bin/../lib/gcc/arm-none-eabi/5.4.1/../../../../arm-none-eabi/lib/armv7e-m/fpu/libm.a(lib_a-wf_exp.o)
 .text          0x00000000        0x0 /home/wenda/opt/gcc-arm-none-eabi/bin/../lib/gcc/arm-none-eabi/5.4.1/../../../../arm-none-eabi/lib/armv7e-m/fpu/libm.a(lib_a-wf_log.o)
 .data          0x00000000        0x0 /home/wenda/opt/gcc-arm-none-eabi/bin/../lib/gcc/arm-none-eabi/5.4.1/../../../../arm-none-eabi/lib/armv7e-m/fpu/libm.a(lib_a-wf_log.o)
 .bss           0x00000000        0x0 /home/wenda/opt/gcc-arm-none-eabi/bin/../lib/gcc/arm-none-eabi/5.4.1/../../../../arm-none-eabi/lib/armv7e-m/fpu/libm.a(lib_a-wf_log.o)
 .text          0x00000000        0x0 /home/wenda/opt/gcc-arm-none-eabi/bin/../lib/gcc/arm-none-eabi/5.4.1/../../../../arm-none-eabi/lib/armv7e-m/fpu/libm.a(lib_a-e_exp.o)
 .data          0x00000000        0x0 /home/wenda/opt/gcc-arm-none-eabi/bin/../lib/gcc/arm-none-eabi/5.4.1/../../../../arm-none-eabi/lib/armv7e-m/fpu/libm.a(lib_a-e_exp.o)
 .bss           0x00000000        0x0 /home/wenda/opt/gcc-arm-none-eabi/bin/../lib/gcc/arm-none-eabi/5.4.1/../../../../arm-none-eabi/lib/armv7e-m/fpu/libm.a(lib_a-e_exp.o)
 .text          0x00000000        0x0 /home/wenda/opt/gcc-arm-none-eabi/bin/../lib/gcc/arm-none-eabi/5.4.1/../../../../arm-none-eabi/lib/armv7e-m/fpu/libm.a(lib_a-e_rem_pio2.o)
 .data          0x00000000        0x0 /home/wenda/opt/gcc-arm-none-eabi/bin/../lib/gcc/arm-none-eabi/5.4.1/../../../../arm-none-eabi/lib/armv7e-m/fpu/libm.a(lib_a-e_rem_pio2.o)
 .bss           0x00000000        0x0 /home/wenda/opt/gcc-arm-none-eabi/bin/../lib/gcc/arm-none-eabi/5.4.1/../../../../arm-none-eabi/lib/armv7e-m/fpu/libm.a(lib_a-e_rem_pio2.o)
 .text.__ieee754_rem_pio2
                0x00000000      0x44c /home/wenda/opt/gcc-arm-none-eabi/bin/../lib/gcc/arm-none-eabi/5.4.1/../../../../arm-none-eabi/lib/armv7e-m/fpu/libm.a(lib_a-e_rem_pio2.o)
 .rodata.npio2_hw
                0x00000000       0x80 /home/wenda/opt/gcc-arm-none-eabi/bin/../lib/gcc/arm-none-eabi/5.4.1/../../../../arm-none-eabi/lib/armv7e-m/fpu/libm.a(lib_a-e_rem_pio2.o)
 .rodata.two_over_pi
                0x00000000      0x108 /home/wenda/opt/gcc-arm-none-eabi/bin/../lib/gcc/arm-none-eabi/5.4.1/../../../../arm-none-eabi/lib/armv7e-m/fpu/libm.a(lib_a-e_rem_pio2.o)
 .text          0x00000000        0x0 /home/wenda/opt/gcc-arm-none-eabi/bin/../lib/gcc/arm-none-eabi/5.4.1/../../../../arm-none-eabi/lib/armv7e-m/fpu/libm.a(lib_a-ef_exp.o)
 .data          0x00000000        0x0 /home/wenda/opt/gcc-arm-none-eabi/bin/../lib/gcc/arm-none-eabi/5.4.1/../../../../arm-none-eabi/lib/armv7e-m/fpu/libm.a(lib_a-ef_exp.o)
 .bss           0x00000000        0x0 /home/wenda/opt/gcc-arm-none-eabi/bin/../lib/gcc/arm-none-eabi/5.4.1/../../../../arm-none-eabi/lib/armv7e-m/fpu/libm.a(lib_a-ef_exp.o)
 .text          0x00000000        0x0 /home/wenda/opt/gcc-arm-none-eabi/bin/../lib/gcc/arm-none-eabi/5.4.1/../../../../arm-none-eabi/lib/armv7e-m/fpu/libm.a(lib_a-ef_log.o)
 .data          0x00000000        0x0 /home/wenda/opt/gcc-arm-none-eabi/bin/../lib/gcc/arm-none-eabi/5.4.1/../../../../arm-none-eabi/lib/armv7e-m/fpu/libm.a(lib_a-ef_log.o)
 .bss           0x00000000        0x0 /home/wenda/opt/gcc-arm-none-eabi/bin/../lib/gcc/arm-none-eabi/5.4.1/../../../../arm-none-eabi/lib/armv7e-m/fpu/libm.a(lib_a-ef_log.o)
 .text          0x00000000        0x0 /home/wenda/opt/gcc-arm-none-eabi/bin/../lib/gcc/arm-none-eabi/5.4.1/../../../../arm-none-eabi/lib/armv7e-m/fpu/libm.a(lib_a-k_cos.o)
 .data          0x00000000        0x0 /home/wenda/opt/gcc-arm-none-eabi/bin/../lib/gcc/arm-none-eabi/5.4.1/../../../../arm-none-eabi/lib/armv7e-m/fpu/libm.a(lib_a-k_cos.o)
 .bss           0x00000000        0x0 /home/wenda/opt/gcc-arm-none-eabi/bin/../lib/gcc/arm-none-eabi/5.4.1/../../../../arm-none-eabi/lib/armv7e-m/fpu/libm.a(lib_a-k_cos.o)
 .text.__kernel_cos
                0x00000000      0x284 /home/wenda/opt/gcc-arm-none-eabi/bin/../lib/gcc/arm-none-eabi/5.4.1/../../../../arm-none-eabi/lib/armv7e-m/fpu/libm.a(lib_a-k_cos.o)
 .text          0x00000000        0x0 /home/wenda/opt/gcc-arm-none-eabi/bin/../lib/gcc/arm-none-eabi/5.4.1/../../../../arm-none-eabi/lib/armv7e-m/fpu/libm.a(lib_a-k_rem_pio2.o)
 .data          0x00000000        0x0 /home/wenda/opt/gcc-arm-none-eabi/bin/../lib/gcc/arm-none-eabi/5.4.1/../../../../arm-none-eabi/lib/armv7e-m/fpu/libm.a(lib_a-k_rem_pio2.o)
 .bss           0x00000000        0x0 /home/wenda/opt/gcc-arm-none-eabi/bin/../lib/gcc/arm-none-eabi/5.4.1/../../../../arm-none-eabi/lib/armv7e-m/fpu/libm.a(lib_a-k_rem_pio2.o)
 .text.__kernel_rem_pio2
                0x00000000      0x820 /home/wenda/opt/gcc-arm-none-eabi/bin/../lib/gcc/arm-none-eabi/5.4.1/../../../../arm-none-eabi/lib/armv7e-m/fpu/libm.a(lib_a-k_rem_pio2.o)
 .rodata.init_jk
                0x00000000       0x10 /home/wenda/opt/gcc-arm-none-eabi/bin/../lib/gcc/arm-none-eabi/5.4.1/../../../../arm-none-eabi/lib/armv7e-m/fpu/libm.a(lib_a-k_rem_pio2.o)
 .rodata.PIo2   0x00000000       0x40 /home/wenda/opt/gcc-arm-none-eabi/bin/../lib/gcc/arm-none-eabi/5.4.1/../../../../arm-none-eabi/lib/armv7e-m/fpu/libm.a(lib_a-k_rem_pio2.o)
 .text          0x00000000        0x0 /home/wenda/opt/gcc-arm-none-eabi/bin/../lib/gcc/arm-none-eabi/5.4.1/../../../../arm-none-eabi/lib/armv7e-m/fpu/libm.a(lib_a-k_sin.o)
 .data          0x00000000        0x0 /home/wenda/opt/gcc-arm-none-eabi/bin/../lib/gcc/arm-none-eabi/5.4.1/../../../../arm-none-eabi/lib/armv7e-m/fpu/libm.a(lib_a-k_sin.o)
 .bss           0x00000000        0x0 /home/wenda/opt/gcc-arm-none-eabi/bin/../lib/gcc/arm-none-eabi/5.4.1/../../../../arm-none-eabi/lib/armv7e-m/fpu/libm.a(lib_a-k_sin.o)
 .text.__kernel_sin
                0x00000000      0x194 /home/wenda/opt/gcc-arm-none-eabi/bin/../lib/gcc/arm-none-eabi/5.4.1/../../../../arm-none-eabi/lib/armv7e-m/fpu/libm.a(lib_a-k_sin.o)
 .text          0x00000000        0x0 /home/wenda/opt/gcc-arm-none-eabi/bin/../lib/gcc/arm-none-eabi/5.4.1/../../../../arm-none-eabi/lib/armv7e-m/fpu/libm.a(lib_a-s_fabs.o)
 .data          0x00000000        0x0 /home/wenda/opt/gcc-arm-none-eabi/bin/../lib/gcc/arm-none-eabi/5.4.1/../../../../arm-none-eabi/lib/armv7e-m/fpu/libm.a(lib_a-s_fabs.o)
 .bss           0x00000000        0x0 /home/wenda/opt/gcc-arm-none-eabi/bin/../lib/gcc/arm-none-eabi/5.4.1/../../../../arm-none-eabi/lib/armv7e-m/fpu/libm.a(lib_a-s_fabs.o)
 .text.fabs     0x00000000       0x10 /home/wenda/opt/gcc-arm-none-eabi/bin/../lib/gcc/arm-none-eabi/5.4.1/../../../../arm-none-eabi/lib/armv7e-m/fpu/libm.a(lib_a-s_fabs.o)
 .text          0x00000000        0x0 /home/wenda/opt/gcc-arm-none-eabi/bin/../lib/gcc/arm-none-eabi/5.4.1/../../../../arm-none-eabi/lib/armv7e-m/fpu/libm.a(lib_a-s_finite.o)
 .data          0x00000000        0x0 /home/wenda/opt/gcc-arm-none-eabi/bin/../lib/gcc/arm-none-eabi/5.4.1/../../../../arm-none-eabi/lib/armv7e-m/fpu/libm.a(lib_a-s_finite.o)
 .bss           0x00000000        0x0 /home/wenda/opt/gcc-arm-none-eabi/bin/../lib/gcc/arm-none-eabi/5.4.1/../../../../arm-none-eabi/lib/armv7e-m/fpu/libm.a(lib_a-s_finite.o)
 .text          0x00000000        0x0 /home/wenda/opt/gcc-arm-none-eabi/bin/../lib/gcc/arm-none-eabi/5.4.1/../../../../arm-none-eabi/lib/armv7e-m/fpu/libm.a(lib_a-s_lib_ver.o)
 .data          0x00000000        0x0 /home/wenda/opt/gcc-arm-none-eabi/bin/../lib/gcc/arm-none-eabi/5.4.1/../../../../arm-none-eabi/lib/armv7e-m/fpu/libm.a(lib_a-s_lib_ver.o)
 .bss           0x00000000        0x0 /home/wenda/opt/gcc-arm-none-eabi/bin/../lib/gcc/arm-none-eabi/5.4.1/../../../../arm-none-eabi/lib/armv7e-m/fpu/libm.a(lib_a-s_lib_ver.o)
 .text          0x00000000        0x0 /home/wenda/opt/gcc-arm-none-eabi/bin/../lib/gcc/arm-none-eabi/5.4.1/../../../../arm-none-eabi/lib/armv7e-m/fpu/libm.a(lib_a-s_matherr.o)
 .data          0x00000000        0x0 /home/wenda/opt/gcc-arm-none-eabi/bin/../lib/gcc/arm-none-eabi/5.4.1/../../../../arm-none-eabi/lib/armv7e-m/fpu/libm.a(lib_a-s_matherr.o)
 .bss           0x00000000        0x0 /home/wenda/opt/gcc-arm-none-eabi/bin/../lib/gcc/arm-none-eabi/5.4.1/../../../../arm-none-eabi/lib/armv7e-m/fpu/libm.a(lib_a-s_matherr.o)
 .text          0x00000000        0x0 /home/wenda/opt/gcc-arm-none-eabi/bin/../lib/gcc/arm-none-eabi/5.4.1/../../../../arm-none-eabi/lib/armv7e-m/fpu/libm.a(lib_a-s_nan.o)
 .data          0x00000000        0x0 /home/wenda/opt/gcc-arm-none-eabi/bin/../lib/gcc/arm-none-eabi/5.4.1/../../../../arm-none-eabi/lib/armv7e-m/fpu/libm.a(lib_a-s_nan.o)
 .bss           0x00000000        0x0 /home/wenda/opt/gcc-arm-none-eabi/bin/../lib/gcc/arm-none-eabi/5.4.1/../../../../arm-none-eabi/lib/armv7e-m/fpu/libm.a(lib_a-s_nan.o)
 .text          0x00000000        0x0 /home/wenda/opt/gcc-arm-none-eabi/bin/../lib/gcc/arm-none-eabi/5.4.1/../../../../arm-none-eabi/lib/armv7e-m/fpu/libm.a(lib_a-s_scalbn.o)
 .data          0x00000000        0x0 /home/wenda/opt/gcc-arm-none-eabi/bin/../lib/gcc/arm-none-eabi/5.4.1/../../../../arm-none-eabi/lib/armv7e-m/fpu/libm.a(lib_a-s_scalbn.o)
 .bss           0x00000000        0x0 /home/wenda/opt/gcc-arm-none-eabi/bin/../lib/gcc/arm-none-eabi/5.4.1/../../../../arm-none-eabi/lib/armv7e-m/fpu/libm.a(lib_a-s_scalbn.o)
 .text.scalbn   0x00000000      0x10c /home/wenda/opt/gcc-arm-none-eabi/bin/../lib/gcc/arm-none-eabi/5.4.1/../../../../arm-none-eabi/lib/armv7e-m/fpu/libm.a(lib_a-s_scalbn.o)
 .text          0x00000000        0x0 /home/wenda/opt/gcc-arm-none-eabi/bin/../lib/gcc/arm-none-eabi/5.4.1/../../../../arm-none-eabi/lib/armv7e-m/fpu/libm.a(lib_a-sf_finite.o)
 .data          0x00000000        0x0 /home/wenda/opt/gcc-arm-none-eabi/bin/../lib/gcc/arm-none-eabi/5.4.1/../../../../arm-none-eabi/lib/armv7e-m/fpu/libm.a(lib_a-sf_finite.o)
 .bss           0x00000000        0x0 /home/wenda/opt/gcc-arm-none-eabi/bin/../lib/gcc/arm-none-eabi/5.4.1/../../../../arm-none-eabi/lib/armv7e-m/fpu/libm.a(lib_a-sf_finite.o)
 .text          0x00000000        0x0 /home/wenda/opt/gcc-arm-none-eabi/bin/../lib/gcc/arm-none-eabi/5.4.1/../../../../arm-none-eabi/lib/armv7e-m/fpu/libm.a(lib_a-s_copysign.o)
 .data          0x00000000        0x0 /home/wenda/opt/gcc-arm-none-eabi/bin/../lib/gcc/arm-none-eabi/5.4.1/../../../../arm-none-eabi/lib/armv7e-m/fpu/libm.a(lib_a-s_copysign.o)
 .bss           0x00000000        0x0 /home/wenda/opt/gcc-arm-none-eabi/bin/../lib/gcc/arm-none-eabi/5.4.1/../../../../arm-none-eabi/lib/armv7e-m/fpu/libm.a(lib_a-s_copysign.o)
 .text.copysign
                0x00000000       0x1c /home/wenda/opt/gcc-arm-none-eabi/bin/../lib/gcc/arm-none-eabi/5.4.1/../../../../arm-none-eabi/lib/armv7e-m/fpu/libm.a(lib_a-s_copysign.o)
 .data          0x00000000        0x0 /home/wenda/opt/gcc-arm-none-eabi/bin/../lib/gcc/arm-none-eabi/5.4.1/armv7e-m/fpu/libgcc.a(_ashldi3.o)
 .bss           0x00000000        0x0 /home/wenda/opt/gcc-arm-none-eabi/bin/../lib/gcc/arm-none-eabi/5.4.1/armv7e-m/fpu/libgcc.a(_ashldi3.o)
 .data          0x00000000        0x0 /home/wenda/opt/gcc-arm-none-eabi/bin/../lib/gcc/arm-none-eabi/5.4.1/armv7e-m/fpu/libgcc.a(_arm_addsubdf3.o)
 .bss           0x00000000        0x0 /home/wenda/opt/gcc-arm-none-eabi/bin/../lib/gcc/arm-none-eabi/5.4.1/armv7e-m/fpu/libgcc.a(_arm_addsubdf3.o)
 .data          0x00000000        0x0 /home/wenda/opt/gcc-arm-none-eabi/bin/../lib/gcc/arm-none-eabi/5.4.1/armv7e-m/fpu/libgcc.a(_arm_muldivdf3.o)
 .bss           0x00000000        0x0 /home/wenda/opt/gcc-arm-none-eabi/bin/../lib/gcc/arm-none-eabi/5.4.1/armv7e-m/fpu/libgcc.a(_arm_muldivdf3.o)
 .data          0x00000000        0x0 /home/wenda/opt/gcc-arm-none-eabi/bin/../lib/gcc/arm-none-eabi/5.4.1/armv7e-m/fpu/libgcc.a(_arm_cmpdf2.o)
 .bss           0x00000000        0x0 /home/wenda/opt/gcc-arm-none-eabi/bin/../lib/gcc/arm-none-eabi/5.4.1/armv7e-m/fpu/libgcc.a(_arm_cmpdf2.o)
 .data          0x00000000        0x0 /home/wenda/opt/gcc-arm-none-eabi/bin/../lib/gcc/arm-none-eabi/5.4.1/armv7e-m/fpu/libgcc.a(_arm_fixdfsi.o)
 .bss           0x00000000        0x0 /home/wenda/opt/gcc-arm-none-eabi/bin/../lib/gcc/arm-none-eabi/5.4.1/armv7e-m/fpu/libgcc.a(_arm_fixdfsi.o)
 .data          0x00000000        0x0 /home/wenda/opt/gcc-arm-none-eabi/bin/../lib/gcc/arm-none-eabi/5.4.1/armv7e-m/fpu/libgcc.a(_arm_truncdfsf2.o)
 .bss           0x00000000        0x0 /home/wenda/opt/gcc-arm-none-eabi/bin/../lib/gcc/arm-none-eabi/5.4.1/armv7e-m/fpu/libgcc.a(_arm_truncdfsf2.o)
 .text          0x00000000       0xa0 /home/wenda/opt/gcc-arm-none-eabi/bin/../lib/gcc/arm-none-eabi/5.4.1/armv7e-m/fpu/libgcc.a(_aeabi_ldivmod.o)
 .data          0x00000000        0x0 /home/wenda/opt/gcc-arm-none-eabi/bin/../lib/gcc/arm-none-eabi/5.4.1/armv7e-m/fpu/libgcc.a(_aeabi_ldivmod.o)
 .bss           0x00000000        0x0 /home/wenda/opt/gcc-arm-none-eabi/bin/../lib/gcc/arm-none-eabi/5.4.1/armv7e-m/fpu/libgcc.a(_aeabi_ldivmod.o)
 .data          0x00000000        0x0 /home/wenda/opt/gcc-arm-none-eabi/bin/../lib/gcc/arm-none-eabi/5.4.1/armv7e-m/fpu/libgcc.a(_fixdfdi.o)
 .bss           0x00000000        0x0 /home/wenda/opt/gcc-arm-none-eabi/bin/../lib/gcc/arm-none-eabi/5.4.1/armv7e-m/fpu/libgcc.a(_fixdfdi.o)
 .data          0x00000000        0x0 /home/wenda/opt/gcc-arm-none-eabi/bin/../lib/gcc/arm-none-eabi/5.4.1/armv7e-m/fpu/libgcc.a(_fixunsdfdi.o)
 .bss           0x00000000        0x0 /home/wenda/opt/gcc-arm-none-eabi/bin/../lib/gcc/arm-none-eabi/5.4.1/armv7e-m/fpu/libgcc.a(_fixunsdfdi.o)
 .text          0x00000000      0x2e4 /home/wenda/opt/gcc-arm-none-eabi/bin/../lib/gcc/arm-none-eabi/5.4.1/armv7e-m/fpu/libgcc.a(_udivmoddi4.o)
 .data          0x00000000        0x0 /home/wenda/opt/gcc-arm-none-eabi/bin/../lib/gcc/arm-none-eabi/5.4.1/armv7e-m/fpu/libgcc.a(_udivmoddi4.o)
 .bss           0x00000000        0x0 /home/wenda/opt/gcc-arm-none-eabi/bin/../lib/gcc/arm-none-eabi/5.4.1/armv7e-m/fpu/libgcc.a(_udivmoddi4.o)
 .ARM.extab     0x00000000        0x0 /home/wenda/opt/gcc-arm-none-eabi/bin/../lib/gcc/arm-none-eabi/5.4.1/armv7e-m/fpu/libgcc.a(_udivmoddi4.o)
 .ARM.exidx     0x00000000        0x8 /home/wenda/opt/gcc-arm-none-eabi/bin/../lib/gcc/arm-none-eabi/5.4.1/armv7e-m/fpu/libgcc.a(_udivmoddi4.o)
 .data          0x00000000        0x0 /home/wenda/opt/gcc-arm-none-eabi/bin/../lib/gcc/arm-none-eabi/5.4.1/armv7e-m/fpu/libgcc.a(unwind-arm.o)
 .bss           0x00000000        0x0 /home/wenda/opt/gcc-arm-none-eabi/bin/../lib/gcc/arm-none-eabi/5.4.1/armv7e-m/fpu/libgcc.a(unwind-arm.o)
 .ARM.extab     0x00000000        0x0 /home/wenda/opt/gcc-arm-none-eabi/bin/../lib/gcc/arm-none-eabi/5.4.1/armv7e-m/fpu/libgcc.a(unwind-arm.o)
 .data          0x00000000        0x0 /home/wenda/opt/gcc-arm-none-eabi/bin/../lib/gcc/arm-none-eabi/5.4.1/armv7e-m/fpu/libgcc.a(libunwind.o)
 .bss           0x00000000        0x0 /home/wenda/opt/gcc-arm-none-eabi/bin/../lib/gcc/arm-none-eabi/5.4.1/armv7e-m/fpu/libgcc.a(libunwind.o)
 .data          0x00000000        0x0 /home/wenda/opt/gcc-arm-none-eabi/bin/../lib/gcc/arm-none-eabi/5.4.1/armv7e-m/fpu/libgcc.a(pr-support.o)
 .bss           0x00000000        0x0 /home/wenda/opt/gcc-arm-none-eabi/bin/../lib/gcc/arm-none-eabi/5.4.1/armv7e-m/fpu/libgcc.a(pr-support.o)
 .text          0x00000000        0x4 /home/wenda/opt/gcc-arm-none-eabi/bin/../lib/gcc/arm-none-eabi/5.4.1/armv7e-m/fpu/libgcc.a(_dvmd_tls.o)
 .data          0x00000000        0x0 /home/wenda/opt/gcc-arm-none-eabi/bin/../lib/gcc/arm-none-eabi/5.4.1/armv7e-m/fpu/libgcc.a(_dvmd_tls.o)
 .bss           0x00000000        0x0 /home/wenda/opt/gcc-arm-none-eabi/bin/../lib/gcc/arm-none-eabi/5.4.1/armv7e-m/fpu/libgcc.a(_dvmd_tls.o)
 .data          0x00000000        0x0 /home/wenda/opt/gcc-arm-none-eabi/bin/../lib/gcc/arm-none-eabi/5.4.1/armv7e-m/fpu/libgcc.a(_arm_fixunsdfsi.o)
 .bss           0x00000000        0x0 /home/wenda/opt/gcc-arm-none-eabi/bin/../lib/gcc/arm-none-eabi/5.4.1/armv7e-m/fpu/libgcc.a(_arm_fixunsdfsi.o)
 .text          0x00000000        0x0 /home/wenda/opt/gcc-arm-none-eabi/bin/../lib/gcc/arm-none-eabi/5.4.1/../../../../arm-none-eabi/lib/armv7e-m/fpu/libc_nano.a(lib_a-abort.o)
 .data          0x00000000        0x0 /home/wenda/opt/gcc-arm-none-eabi/bin/../lib/gcc/arm-none-eabi/5.4.1/../../../../arm-none-eabi/lib/armv7e-m/fpu/libc_nano.a(lib_a-abort.o)
 .bss           0x00000000        0x0 /home/wenda/opt/gcc-arm-none-eabi/bin/../lib/gcc/arm-none-eabi/5.4.1/../../../../arm-none-eabi/lib/armv7e-m/fpu/libc_nano.a(lib_a-abort.o)
 .text          0x00000000        0x0 /home/wenda/opt/gcc-arm-none-eabi/bin/../lib/gcc/arm-none-eabi/5.4.1/../../../../arm-none-eabi/lib/armv7e-m/fpu/libc_nano.a(lib_a-errno.o)
 .data          0x00000000        0x0 /home/wenda/opt/gcc-arm-none-eabi/bin/../lib/gcc/arm-none-eabi/5.4.1/../../../../arm-none-eabi/lib/armv7e-m/fpu/libc_nano.a(lib_a-errno.o)
 .bss           0x00000000        0x0 /home/wenda/opt/gcc-arm-none-eabi/bin/../lib/gcc/arm-none-eabi/5.4.1/../../../../arm-none-eabi/lib/armv7e-m/fpu/libc_nano.a(lib_a-errno.o)
 .text          0x00000000        0x0 /home/wenda/opt/gcc-arm-none-eabi/bin/../lib/gcc/arm-none-eabi/5.4.1/../../../../arm-none-eabi/lib/armv7e-m/fpu/libc_nano.a(lib_a-exit.o)
 .data          0x00000000        0x0 /home/wenda/opt/gcc-arm-none-eabi/bin/../lib/gcc/arm-none-eabi/5.4.1/../../../../arm-none-eabi/lib/armv7e-m/fpu/libc_nano.a(lib_a-exit.o)
 .bss           0x00000000        0x0 /home/wenda/opt/gcc-arm-none-eabi/bin/../lib/gcc/arm-none-eabi/5.4.1/../../../../arm-none-eabi/lib/armv7e-m/fpu/libc_nano.a(lib_a-exit.o)
 .text          0x00000000        0x0 /home/wenda/opt/gcc-arm-none-eabi/bin/../lib/gcc/arm-none-eabi/5.4.1/../../../../arm-none-eabi/lib/armv7e-m/fpu/libc_nano.a(lib_a-fputs.o)
 .data          0x00000000        0x0 /home/wenda/opt/gcc-arm-none-eabi/bin/../lib/gcc/arm-none-eabi/5.4.1/../../../../arm-none-eabi/lib/armv7e-m/fpu/libc_nano.a(lib_a-fputs.o)
 .bss           0x00000000        0x0 /home/wenda/opt/gcc-arm-none-eabi/bin/../lib/gcc/arm-none-eabi/5.4.1/../../../../arm-none-eabi/lib/armv7e-m/fpu/libc_nano.a(lib_a-fputs.o)
 .text          0x00000000        0x0 /home/wenda/opt/gcc-arm-none-eabi/bin/../lib/gcc/arm-none-eabi/5.4.1/../../../../arm-none-eabi/lib/armv7e-m/fpu/libc_nano.a(lib_a-impure.o)
 .data          0x00000000        0x0 /home/wenda/opt/gcc-arm-none-eabi/bin/../lib/gcc/arm-none-eabi/5.4.1/../../../../arm-none-eabi/lib/armv7e-m/fpu/libc_nano.a(lib_a-impure.o)
 .bss           0x00000000        0x0 /home/wenda/opt/gcc-arm-none-eabi/bin/../lib/gcc/arm-none-eabi/5.4.1/../../../../arm-none-eabi/lib/armv7e-m/fpu/libc_nano.a(lib_a-impure.o)
 .text          0x00000000        0x0 /home/wenda/opt/gcc-arm-none-eabi/bin/../lib/gcc/arm-none-eabi/5.4.1/../../../../arm-none-eabi/lib/armv7e-m/fpu/libc_nano.a(lib_a-init.o)
 .data          0x00000000        0x0 /home/wenda/opt/gcc-arm-none-eabi/bin/../lib/gcc/arm-none-eabi/5.4.1/../../../../arm-none-eabi/lib/armv7e-m/fpu/libc_nano.a(lib_a-init.o)
 .bss           0x00000000        0x0 /home/wenda/opt/gcc-arm-none-eabi/bin/../lib/gcc/arm-none-eabi/5.4.1/../../../../arm-none-eabi/lib/armv7e-m/fpu/libc_nano.a(lib_a-init.o)
 .text          0x00000000        0x0 /home/wenda/opt/gcc-arm-none-eabi/bin/../lib/gcc/arm-none-eabi/5.4.1/../../../../arm-none-eabi/lib/armv7e-m/fpu/libc_nano.a(lib_a-malloc.o)
 .data          0x00000000        0x0 /home/wenda/opt/gcc-arm-none-eabi/bin/../lib/gcc/arm-none-eabi/5.4.1/../../../../arm-none-eabi/lib/armv7e-m/fpu/libc_nano.a(lib_a-malloc.o)
 .bss           0x00000000        0x0 /home/wenda/opt/gcc-arm-none-eabi/bin/../lib/gcc/arm-none-eabi/5.4.1/../../../../arm-none-eabi/lib/armv7e-m/fpu/libc_nano.a(lib_a-malloc.o)
 .text          0x00000000        0x0 /home/wenda/opt/gcc-arm-none-eabi/bin/../lib/gcc/arm-none-eabi/5.4.1/../../../../arm-none-eabi/lib/armv7e-m/fpu/libc_nano.a(lib_a-memcpy-stub.o)
 .data          0x00000000        0x0 /home/wenda/opt/gcc-arm-none-eabi/bin/../lib/gcc/arm-none-eabi/5.4.1/../../../../arm-none-eabi/lib/armv7e-m/fpu/libc_nano.a(lib_a-memcpy-stub.o)
 .bss           0x00000000        0x0 /home/wenda/opt/gcc-arm-none-eabi/bin/../lib/gcc/arm-none-eabi/5.4.1/../../../../arm-none-eabi/lib/armv7e-m/fpu/libc_nano.a(lib_a-memcpy-stub.o)
 .text          0x00000000        0x0 /home/wenda/opt/gcc-arm-none-eabi/bin/../lib/gcc/arm-none-eabi/5.4.1/../../../../arm-none-eabi/lib/armv7e-m/fpu/libc_nano.a(lib_a-memset.o)
 .data          0x00000000        0x0 /home/wenda/opt/gcc-arm-none-eabi/bin/../lib/gcc/arm-none-eabi/5.4.1/../../../../arm-none-eabi/lib/armv7e-m/fpu/libc_nano.a(lib_a-memset.o)
 .bss           0x00000000        0x0 /home/wenda/opt/gcc-arm-none-eabi/bin/../lib/gcc/arm-none-eabi/5.4.1/../../../../arm-none-eabi/lib/armv7e-m/fpu/libc_nano.a(lib_a-memset.o)
 .text          0x00000000        0x0 /home/wenda/opt/gcc-arm-none-eabi/bin/../lib/gcc/arm-none-eabi/5.4.1/../../../../arm-none-eabi/lib/armv7e-m/fpu/libc_nano.a(lib_a-nano-freer.o)
 .data          0x00000000        0x0 /home/wenda/opt/gcc-arm-none-eabi/bin/../lib/gcc/arm-none-eabi/5.4.1/../../../../arm-none-eabi/lib/armv7e-m/fpu/libc_nano.a(lib_a-nano-freer.o)
 .bss           0x00000000        0x0 /home/wenda/opt/gcc-arm-none-eabi/bin/../lib/gcc/arm-none-eabi/5.4.1/../../../../arm-none-eabi/lib/armv7e-m/fpu/libc_nano.a(lib_a-nano-freer.o)
 .text          0x00000000        0x0 /home/wenda/opt/gcc-arm-none-eabi/bin/../lib/gcc/arm-none-eabi/5.4.1/../../../../arm-none-eabi/lib/armv7e-m/fpu/libc_nano.a(lib_a-nano-mallocr.o)
 .data          0x00000000        0x0 /home/wenda/opt/gcc-arm-none-eabi/bin/../lib/gcc/arm-none-eabi/5.4.1/../../../../arm-none-eabi/lib/armv7e-m/fpu/libc_nano.a(lib_a-nano-mallocr.o)
 .bss           0x00000000        0x0 /home/wenda/opt/gcc-arm-none-eabi/bin/../lib/gcc/arm-none-eabi/5.4.1/../../../../arm-none-eabi/lib/armv7e-m/fpu/libc_nano.a(lib_a-nano-mallocr.o)
 .text          0x00000000        0x0 /home/wenda/opt/gcc-arm-none-eabi/bin/../lib/gcc/arm-none-eabi/5.4.1/../../../../arm-none-eabi/lib/armv7e-m/fpu/libc_nano.a(lib_a-printf.o)
 .data          0x00000000        0x0 /home/wenda/opt/gcc-arm-none-eabi/bin/../lib/gcc/arm-none-eabi/5.4.1/../../../../arm-none-eabi/lib/armv7e-m/fpu/libc_nano.a(lib_a-printf.o)
 .bss           0x00000000        0x0 /home/wenda/opt/gcc-arm-none-eabi/bin/../lib/gcc/arm-none-eabi/5.4.1/../../../../arm-none-eabi/lib/armv7e-m/fpu/libc_nano.a(lib_a-printf.o)
 .text._printf_r
                0x00000000       0x28 /home/wenda/opt/gcc-arm-none-eabi/bin/../lib/gcc/arm-none-eabi/5.4.1/../../../../arm-none-eabi/lib/armv7e-m/fpu/libc_nano.a(lib_a-printf.o)
 .text          0x00000000        0x0 /home/wenda/opt/gcc-arm-none-eabi/bin/../lib/gcc/arm-none-eabi/5.4.1/../../../../arm-none-eabi/lib/armv7e-m/fpu/libc_nano.a(lib_a-puts.o)
 .data          0x00000000        0x0 /home/wenda/opt/gcc-arm-none-eabi/bin/../lib/gcc/arm-none-eabi/5.4.1/../../../../arm-none-eabi/lib/armv7e-m/fpu/libc_nano.a(lib_a-puts.o)
 .bss           0x00000000        0x0 /home/wenda/opt/gcc-arm-none-eabi/bin/../lib/gcc/arm-none-eabi/5.4.1/../../../../arm-none-eabi/lib/armv7e-m/fpu/libc_nano.a(lib_a-puts.o)
 .text          0x00000000        0x0 /home/wenda/opt/gcc-arm-none-eabi/bin/../lib/gcc/arm-none-eabi/5.4.1/../../../../arm-none-eabi/lib/armv7e-m/fpu/libc_nano.a(lib_a-realloc.o)
 .data          0x00000000        0x0 /home/wenda/opt/gcc-arm-none-eabi/bin/../lib/gcc/arm-none-eabi/5.4.1/../../../../arm-none-eabi/lib/armv7e-m/fpu/libc_nano.a(lib_a-realloc.o)
 .bss           0x00000000        0x0 /home/wenda/opt/gcc-arm-none-eabi/bin/../lib/gcc/arm-none-eabi/5.4.1/../../../../arm-none-eabi/lib/armv7e-m/fpu/libc_nano.a(lib_a-realloc.o)
 .text          0x00000000        0x0 /home/wenda/opt/gcc-arm-none-eabi/bin/../lib/gcc/arm-none-eabi/5.4.1/../../../../arm-none-eabi/lib/armv7e-m/fpu/libc_nano.a(lib_a-sbrkr.o)
 .data          0x00000000        0x0 /home/wenda/opt/gcc-arm-none-eabi/bin/../lib/gcc/arm-none-eabi/5.4.1/../../../../arm-none-eabi/lib/armv7e-m/fpu/libc_nano.a(lib_a-sbrkr.o)
 .bss           0x00000000        0x0 /home/wenda/opt/gcc-arm-none-eabi/bin/../lib/gcc/arm-none-eabi/5.4.1/../../../../arm-none-eabi/lib/armv7e-m/fpu/libc_nano.a(lib_a-sbrkr.o)
 .text          0x00000000        0x0 /home/wenda/opt/gcc-arm-none-eabi/bin/../lib/gcc/arm-none-eabi/5.4.1/../../../../arm-none-eabi/lib/armv7e-m/fpu/libc_nano.a(lib_a-signal.o)
 .data          0x00000000        0x0 /home/wenda/opt/gcc-arm-none-eabi/bin/../lib/gcc/arm-none-eabi/5.4.1/../../../../arm-none-eabi/lib/armv7e-m/fpu/libc_nano.a(lib_a-signal.o)
 .bss           0x00000000        0x0 /home/wenda/opt/gcc-arm-none-eabi/bin/../lib/gcc/arm-none-eabi/5.4.1/../../../../arm-none-eabi/lib/armv7e-m/fpu/libc_nano.a(lib_a-signal.o)
 .text._init_signal_r
                0x00000000       0x2c /home/wenda/opt/gcc-arm-none-eabi/bin/../lib/gcc/arm-none-eabi/5.4.1/../../../../arm-none-eabi/lib/armv7e-m/fpu/libc_nano.a(lib_a-signal.o)
 .text._signal_r
                0x00000000       0x30 /home/wenda/opt/gcc-arm-none-eabi/bin/../lib/gcc/arm-none-eabi/5.4.1/../../../../arm-none-eabi/lib/armv7e-m/fpu/libc_nano.a(lib_a-signal.o)
 .text.__sigtramp_r
                0x00000000       0x4a /home/wenda/opt/gcc-arm-none-eabi/bin/../lib/gcc/arm-none-eabi/5.4.1/../../../../arm-none-eabi/lib/armv7e-m/fpu/libc_nano.a(lib_a-signal.o)
 .text.signal   0x00000000       0x10 /home/wenda/opt/gcc-arm-none-eabi/bin/../lib/gcc/arm-none-eabi/5.4.1/../../../../arm-none-eabi/lib/armv7e-m/fpu/libc_nano.a(lib_a-signal.o)
 .text._init_signal
                0x00000000        0xc /home/wenda/opt/gcc-arm-none-eabi/bin/../lib/gcc/arm-none-eabi/5.4.1/../../../../arm-none-eabi/lib/armv7e-m/fpu/libc_nano.a(lib_a-signal.o)
 .text.__sigtramp
                0x00000000       0x10 /home/wenda/opt/gcc-arm-none-eabi/bin/../lib/gcc/arm-none-eabi/5.4.1/../../../../arm-none-eabi/lib/armv7e-m/fpu/libc_nano.a(lib_a-signal.o)
 .text          0x00000000        0x0 /home/wenda/opt/gcc-arm-none-eabi/bin/../lib/gcc/arm-none-eabi/5.4.1/../../../../arm-none-eabi/lib/armv7e-m/fpu/libc_nano.a(lib_a-signalr.o)
 .data          0x00000000        0x0 /home/wenda/opt/gcc-arm-none-eabi/bin/../lib/gcc/arm-none-eabi/5.4.1/../../../../arm-none-eabi/lib/armv7e-m/fpu/libc_nano.a(lib_a-signalr.o)
 .bss           0x00000000        0x0 /home/wenda/opt/gcc-arm-none-eabi/bin/../lib/gcc/arm-none-eabi/5.4.1/../../../../arm-none-eabi/lib/armv7e-m/fpu/libc_nano.a(lib_a-signalr.o)
 .data          0x00000000        0x0 /home/wenda/opt/gcc-arm-none-eabi/bin/../lib/gcc/arm-none-eabi/5.4.1/../../../../arm-none-eabi/lib/armv7e-m/fpu/libc_nano.a(lib_a-strcmp.o)
 .bss           0x00000000        0x0 /home/wenda/opt/gcc-arm-none-eabi/bin/../lib/gcc/arm-none-eabi/5.4.1/../../../../arm-none-eabi/lib/armv7e-m/fpu/libc_nano.a(lib_a-strcmp.o)
 .text          0x00000000        0x0 /home/wenda/opt/gcc-arm-none-eabi/bin/../lib/gcc/arm-none-eabi/5.4.1/../../../../arm-none-eabi/lib/armv7e-m/fpu/libc_nano.a(lib_a-wbuf.o)
 .data          0x00000000        0x0 /home/wenda/opt/gcc-arm-none-eabi/bin/../lib/gcc/arm-none-eabi/5.4.1/../../../../arm-none-eabi/lib/armv7e-m/fpu/libc_nano.a(lib_a-wbuf.o)
 .bss           0x00000000        0x0 /home/wenda/opt/gcc-arm-none-eabi/bin/../lib/gcc/arm-none-eabi/5.4.1/../../../../arm-none-eabi/lib/armv7e-m/fpu/libc_nano.a(lib_a-wbuf.o)
 .text.__swbuf  0x00000000       0x10 /home/wenda/opt/gcc-arm-none-eabi/bin/../lib/gcc/arm-none-eabi/5.4.1/../../../../arm-none-eabi/lib/armv7e-m/fpu/libc_nano.a(lib_a-wbuf.o)
 .text          0x00000000        0x0 /home/wenda/opt/gcc-arm-none-eabi/bin/../lib/gcc/arm-none-eabi/5.4.1/../../../../arm-none-eabi/lib/armv7e-m/fpu/libc_nano.a(lib_a-wsetup.o)
 .data          0x00000000        0x0 /home/wenda/opt/gcc-arm-none-eabi/bin/../lib/gcc/arm-none-eabi/5.4.1/../../../../arm-none-eabi/lib/armv7e-m/fpu/libc_nano.a(lib_a-wsetup.o)
 .bss           0x00000000        0x0 /home/wenda/opt/gcc-arm-none-eabi/bin/../lib/gcc/arm-none-eabi/5.4.1/../../../../arm-none-eabi/lib/armv7e-m/fpu/libc_nano.a(lib_a-wsetup.o)
 .text          0x00000000        0x0 /home/wenda/opt/gcc-arm-none-eabi/bin/../lib/gcc/arm-none-eabi/5.4.1/../../../../arm-none-eabi/lib/armv7e-m/fpu/libc_nano.a(lib_a-fflush.o)
 .data          0x00000000        0x0 /home/wenda/opt/gcc-arm-none-eabi/bin/../lib/gcc/arm-none-eabi/5.4.1/../../../../arm-none-eabi/lib/armv7e-m/fpu/libc_nano.a(lib_a-fflush.o)
 .bss           0x00000000        0x0 /home/wenda/opt/gcc-arm-none-eabi/bin/../lib/gcc/arm-none-eabi/5.4.1/../../../../arm-none-eabi/lib/armv7e-m/fpu/libc_nano.a(lib_a-fflush.o)
 .text.fflush   0x00000000       0x24 /home/wenda/opt/gcc-arm-none-eabi/bin/../lib/gcc/arm-none-eabi/5.4.1/../../../../arm-none-eabi/lib/armv7e-m/fpu/libc_nano.a(lib_a-fflush.o)
 .text          0x00000000        0x0 /home/wenda/opt/gcc-arm-none-eabi/bin/../lib/gcc/arm-none-eabi/5.4.1/../../../../arm-none-eabi/lib/armv7e-m/fpu/libc_nano.a(lib_a-findfp.o)
 .data          0x00000000        0x0 /home/wenda/opt/gcc-arm-none-eabi/bin/../lib/gcc/arm-none-eabi/5.4.1/../../../../arm-none-eabi/lib/armv7e-m/fpu/libc_nano.a(lib_a-findfp.o)
 .bss           0x00000000        0x0 /home/wenda/opt/gcc-arm-none-eabi/bin/../lib/gcc/arm-none-eabi/5.4.1/../../../../arm-none-eabi/lib/armv7e-m/fpu/libc_nano.a(lib_a-findfp.o)
 .text.__fp_unlock
                0x00000000        0x4 /home/wenda/opt/gcc-arm-none-eabi/bin/../lib/gcc/arm-none-eabi/5.4.1/../../../../arm-none-eabi/lib/armv7e-m/fpu/libc_nano.a(lib_a-findfp.o)
 .text.__fp_lock
                0x00000000        0x4 /home/wenda/opt/gcc-arm-none-eabi/bin/../lib/gcc/arm-none-eabi/5.4.1/../../../../arm-none-eabi/lib/armv7e-m/fpu/libc_nano.a(lib_a-findfp.o)
 .text._cleanup
                0x00000000        0xc /home/wenda/opt/gcc-arm-none-eabi/bin/../lib/gcc/arm-none-eabi/5.4.1/../../../../arm-none-eabi/lib/armv7e-m/fpu/libc_nano.a(lib_a-findfp.o)
 .text.__sfp_lock_acquire
                0x00000000        0x2 /home/wenda/opt/gcc-arm-none-eabi/bin/../lib/gcc/arm-none-eabi/5.4.1/../../../../arm-none-eabi/lib/armv7e-m/fpu/libc_nano.a(lib_a-findfp.o)
 .text.__sfp_lock_release
                0x00000000        0x2 /home/wenda/opt/gcc-arm-none-eabi/bin/../lib/gcc/arm-none-eabi/5.4.1/../../../../arm-none-eabi/lib/armv7e-m/fpu/libc_nano.a(lib_a-findfp.o)
 .text.__sinit_lock_acquire
                0x00000000        0x2 /home/wenda/opt/gcc-arm-none-eabi/bin/../lib/gcc/arm-none-eabi/5.4.1/../../../../arm-none-eabi/lib/armv7e-m/fpu/libc_nano.a(lib_a-findfp.o)
 .text.__sinit_lock_release
                0x00000000        0x2 /home/wenda/opt/gcc-arm-none-eabi/bin/../lib/gcc/arm-none-eabi/5.4.1/../../../../arm-none-eabi/lib/armv7e-m/fpu/libc_nano.a(lib_a-findfp.o)
 .text.__fp_lock_all
                0x00000000       0x14 /home/wenda/opt/gcc-arm-none-eabi/bin/../lib/gcc/arm-none-eabi/5.4.1/../../../../arm-none-eabi/lib/armv7e-m/fpu/libc_nano.a(lib_a-findfp.o)
 .text.__fp_unlock_all
                0x00000000       0x14 /home/wenda/opt/gcc-arm-none-eabi/bin/../lib/gcc/arm-none-eabi/5.4.1/../../../../arm-none-eabi/lib/armv7e-m/fpu/libc_nano.a(lib_a-findfp.o)
 .text          0x00000000        0x0 /home/wenda/opt/gcc-arm-none-eabi/bin/../lib/gcc/arm-none-eabi/5.4.1/../../../../arm-none-eabi/lib/armv7e-m/fpu/libc_nano.a(lib_a-fwalk.o)
 .data          0x00000000        0x0 /home/wenda/opt/gcc-arm-none-eabi/bin/../lib/gcc/arm-none-eabi/5.4.1/../../../../arm-none-eabi/lib/armv7e-m/fpu/libc_nano.a(lib_a-fwalk.o)
 .bss           0x00000000        0x0 /home/wenda/opt/gcc-arm-none-eabi/bin/../lib/gcc/arm-none-eabi/5.4.1/../../../../arm-none-eabi/lib/armv7e-m/fpu/libc_nano.a(lib_a-fwalk.o)
 .text._fwalk   0x00000000       0x38 /home/wenda/opt/gcc-arm-none-eabi/bin/../lib/gcc/arm-none-eabi/5.4.1/../../../../arm-none-eabi/lib/armv7e-m/fpu/libc_nano.a(lib_a-fwalk.o)
 .text          0x00000000        0x0 /home/wenda/opt/gcc-arm-none-eabi/bin/../lib/gcc/arm-none-eabi/5.4.1/../../../../arm-none-eabi/lib/armv7e-m/fpu/libc_nano.a(lib_a-makebuf.o)
 .data          0x00000000        0x0 /home/wenda/opt/gcc-arm-none-eabi/bin/../lib/gcc/arm-none-eabi/5.4.1/../../../../arm-none-eabi/lib/armv7e-m/fpu/libc_nano.a(lib_a-makebuf.o)
 .bss           0x00000000        0x0 /home/wenda/opt/gcc-arm-none-eabi/bin/../lib/gcc/arm-none-eabi/5.4.1/../../../../arm-none-eabi/lib/armv7e-m/fpu/libc_nano.a(lib_a-makebuf.o)
 .text          0x00000000        0x0 /home/wenda/opt/gcc-arm-none-eabi/bin/../lib/gcc/arm-none-eabi/5.4.1/../../../../arm-none-eabi/lib/armv7e-m/fpu/libc_nano.a(lib_a-mlock.o)
 .data          0x00000000        0x0 /home/wenda/opt/gcc-arm-none-eabi/bin/../lib/gcc/arm-none-eabi/5.4.1/../../../../arm-none-eabi/lib/armv7e-m/fpu/libc_nano.a(lib_a-mlock.o)
 .bss           0x00000000        0x0 /home/wenda/opt/gcc-arm-none-eabi/bin/../lib/gcc/arm-none-eabi/5.4.1/../../../../arm-none-eabi/lib/armv7e-m/fpu/libc_nano.a(lib_a-mlock.o)
 .text          0x00000000        0x0 /home/wenda/opt/gcc-arm-none-eabi/bin/../lib/gcc/arm-none-eabi/5.4.1/../../../../arm-none-eabi/lib/armv7e-m/fpu/libc_nano.a(lib_a-nano-reallocr.o)
 .data          0x00000000        0x0 /home/wenda/opt/gcc-arm-none-eabi/bin/../lib/gcc/arm-none-eabi/5.4.1/../../../../arm-none-eabi/lib/armv7e-m/fpu/libc_nano.a(lib_a-nano-reallocr.o)
 .bss           0x00000000        0x0 /home/wenda/opt/gcc-arm-none-eabi/bin/../lib/gcc/arm-none-eabi/5.4.1/../../../../arm-none-eabi/lib/armv7e-m/fpu/libc_nano.a(lib_a-nano-reallocr.o)
 .text          0x00000000        0x0 /home/wenda/opt/gcc-arm-none-eabi/bin/../lib/gcc/arm-none-eabi/5.4.1/../../../../arm-none-eabi/lib/armv7e-m/fpu/libc_nano.a(lib_a-nano-vfprintf.o)
 .data          0x00000000        0x0 /home/wenda/opt/gcc-arm-none-eabi/bin/../lib/gcc/arm-none-eabi/5.4.1/../../../../arm-none-eabi/lib/armv7e-m/fpu/libc_nano.a(lib_a-nano-vfprintf.o)
 .bss           0x00000000        0x0 /home/wenda/opt/gcc-arm-none-eabi/bin/../lib/gcc/arm-none-eabi/5.4.1/../../../../arm-none-eabi/lib/armv7e-m/fpu/libc_nano.a(lib_a-nano-vfprintf.o)
 .text.__sprint_r
                0x00000000       0x1a /home/wenda/opt/gcc-arm-none-eabi/bin/../lib/gcc/arm-none-eabi/5.4.1/../../../../arm-none-eabi/lib/armv7e-m/fpu/libc_nano.a(lib_a-nano-vfprintf.o)
 .text.vfprintf
                0x00000000       0x14 /home/wenda/opt/gcc-arm-none-eabi/bin/../lib/gcc/arm-none-eabi/5.4.1/../../../../arm-none-eabi/lib/armv7e-m/fpu/libc_nano.a(lib_a-nano-vfprintf.o)
 .text          0x00000000        0x0 /home/wenda/opt/gcc-arm-none-eabi/bin/../lib/gcc/arm-none-eabi/5.4.1/../../../../arm-none-eabi/lib/armv7e-m/fpu/libc_nano.a(lib_a-nano-vfprintf_i.o)
 .data          0x00000000        0x0 /home/wenda/opt/gcc-arm-none-eabi/bin/../lib/gcc/arm-none-eabi/5.4.1/../../../../arm-none-eabi/lib/armv7e-m/fpu/libc_nano.a(lib_a-nano-vfprintf_i.o)
 .bss           0x00000000        0x0 /home/wenda/opt/gcc-arm-none-eabi/bin/../lib/gcc/arm-none-eabi/5.4.1/../../../../arm-none-eabi/lib/armv7e-m/fpu/libc_nano.a(lib_a-nano-vfprintf_i.o)
 .text          0x00000000        0x0 /home/wenda/opt/gcc-arm-none-eabi/bin/../lib/gcc/arm-none-eabi/5.4.1/../../../../arm-none-eabi/lib/armv7e-m/fpu/libc_nano.a(lib_a-reent.o)
 .data          0x00000000        0x0 /home/wenda/opt/gcc-arm-none-eabi/bin/../lib/gcc/arm-none-eabi/5.4.1/../../../../arm-none-eabi/lib/armv7e-m/fpu/libc_nano.a(lib_a-reent.o)
 .bss           0x00000000        0x0 /home/wenda/opt/gcc-arm-none-eabi/bin/../lib/gcc/arm-none-eabi/5.4.1/../../../../arm-none-eabi/lib/armv7e-m/fpu/libc_nano.a(lib_a-reent.o)
 .text.cleanup_glue
                0x00000000       0x1a /home/wenda/opt/gcc-arm-none-eabi/bin/../lib/gcc/arm-none-eabi/5.4.1/../../../../arm-none-eabi/lib/armv7e-m/fpu/libc_nano.a(lib_a-reent.o)
 .text._reclaim_reent
                0x00000000       0xb4 /home/wenda/opt/gcc-arm-none-eabi/bin/../lib/gcc/arm-none-eabi/5.4.1/../../../../arm-none-eabi/lib/armv7e-m/fpu/libc_nano.a(lib_a-reent.o)
 .text          0x00000000        0x0 /home/wenda/opt/gcc-arm-none-eabi/bin/../lib/gcc/arm-none-eabi/5.4.1/../../../../arm-none-eabi/lib/armv7e-m/fpu/libc_nano.a(lib_a-stdio.o)
 .data          0x00000000        0x0 /home/wenda/opt/gcc-arm-none-eabi/bin/../lib/gcc/arm-none-eabi/5.4.1/../../../../arm-none-eabi/lib/armv7e-m/fpu/libc_nano.a(lib_a-stdio.o)
 .bss           0x00000000        0x0 /home/wenda/opt/gcc-arm-none-eabi/bin/../lib/gcc/arm-none-eabi/5.4.1/../../../../arm-none-eabi/lib/armv7e-m/fpu/libc_nano.a(lib_a-stdio.o)
 .text.__seofread
                0x00000000        0x4 /home/wenda/opt/gcc-arm-none-eabi/bin/../lib/gcc/arm-none-eabi/5.4.1/../../../../arm-none-eabi/lib/armv7e-m/fpu/libc_nano.a(lib_a-stdio.o)
 .text          0x00000000        0x0 /home/wenda/opt/gcc-arm-none-eabi/bin/../lib/gcc/arm-none-eabi/5.4.1/../../../../arm-none-eabi/lib/armv7e-m/fpu/libc_nano.a(lib_a-writer.o)
 .data          0x00000000        0x0 /home/wenda/opt/gcc-arm-none-eabi/bin/../lib/gcc/arm-none-eabi/5.4.1/../../../../arm-none-eabi/lib/armv7e-m/fpu/libc_nano.a(lib_a-writer.o)
 .bss           0x00000000        0x0 /home/wenda/opt/gcc-arm-none-eabi/bin/../lib/gcc/arm-none-eabi/5.4.1/../../../../arm-none-eabi/lib/armv7e-m/fpu/libc_nano.a(lib_a-writer.o)
 .text          0x00000000        0x0 /home/wenda/opt/gcc-arm-none-eabi/bin/../lib/gcc/arm-none-eabi/5.4.1/../../../../arm-none-eabi/lib/armv7e-m/fpu/libc_nano.a(lib_a-closer.o)
 .data          0x00000000        0x0 /home/wenda/opt/gcc-arm-none-eabi/bin/../lib/gcc/arm-none-eabi/5.4.1/../../../../arm-none-eabi/lib/armv7e-m/fpu/libc_nano.a(lib_a-closer.o)
 .bss           0x00000000        0x0 /home/wenda/opt/gcc-arm-none-eabi/bin/../lib/gcc/arm-none-eabi/5.4.1/../../../../arm-none-eabi/lib/armv7e-m/fpu/libc_nano.a(lib_a-closer.o)
 .text          0x00000000        0x0 /home/wenda/opt/gcc-arm-none-eabi/bin/../lib/gcc/arm-none-eabi/5.4.1/../../../../arm-none-eabi/lib/armv7e-m/fpu/libc_nano.a(lib_a-fstatr.o)
 .data          0x00000000        0x0 /home/wenda/opt/gcc-arm-none-eabi/bin/../lib/gcc/arm-none-eabi/5.4.1/../../../../arm-none-eabi/lib/armv7e-m/fpu/libc_nano.a(lib_a-fstatr.o)
 .bss           0x00000000        0x0 /home/wenda/opt/gcc-arm-none-eabi/bin/../lib/gcc/arm-none-eabi/5.4.1/../../../../arm-none-eabi/lib/armv7e-m/fpu/libc_nano.a(lib_a-fstatr.o)
 .text          0x00000000        0x0 /home/wenda/opt/gcc-arm-none-eabi/bin/../lib/gcc/arm-none-eabi/5.4.1/../../../../arm-none-eabi/lib/armv7e-m/fpu/libc_nano.a(lib_a-fvwrite.o)
 .data          0x00000000        0x0 /home/wenda/opt/gcc-arm-none-eabi/bin/../lib/gcc/arm-none-eabi/5.4.1/../../../../arm-none-eabi/lib/armv7e-m/fpu/libc_nano.a(lib_a-fvwrite.o)
 .bss           0x00000000        0x0 /home/wenda/opt/gcc-arm-none-eabi/bin/../lib/gcc/arm-none-eabi/5.4.1/../../../../arm-none-eabi/lib/armv7e-m/fpu/libc_nano.a(lib_a-fvwrite.o)
 .text.__sfvwrite_r
                0x00000000      0x294 /home/wenda/opt/gcc-arm-none-eabi/bin/../lib/gcc/arm-none-eabi/5.4.1/../../../../arm-none-eabi/lib/armv7e-m/fpu/libc_nano.a(lib_a-fvwrite.o)
 .text          0x00000000        0x0 /home/wenda/opt/gcc-arm-none-eabi/bin/../lib/gcc/arm-none-eabi/5.4.1/../../../../arm-none-eabi/lib/armv7e-m/fpu/libc_nano.a(lib_a-isattyr.o)
 .data          0x00000000        0x0 /home/wenda/opt/gcc-arm-none-eabi/bin/../lib/gcc/arm-none-eabi/5.4.1/../../../../arm-none-eabi/lib/armv7e-m/fpu/libc_nano.a(lib_a-isattyr.o)
 .bss           0x00000000        0x0 /home/wenda/opt/gcc-arm-none-eabi/bin/../lib/gcc/arm-none-eabi/5.4.1/../../../../arm-none-eabi/lib/armv7e-m/fpu/libc_nano.a(lib_a-isattyr.o)
 .text          0x00000000        0x0 /home/wenda/opt/gcc-arm-none-eabi/bin/../lib/gcc/arm-none-eabi/5.4.1/../../../../arm-none-eabi/lib/armv7e-m/fpu/libc_nano.a(lib_a-lseekr.o)
 .data          0x00000000        0x0 /home/wenda/opt/gcc-arm-none-eabi/bin/../lib/gcc/arm-none-eabi/5.4.1/../../../../arm-none-eabi/lib/armv7e-m/fpu/libc_nano.a(lib_a-lseekr.o)
 .bss           0x00000000        0x0 /home/wenda/opt/gcc-arm-none-eabi/bin/../lib/gcc/arm-none-eabi/5.4.1/../../../../arm-none-eabi/lib/armv7e-m/fpu/libc_nano.a(lib_a-lseekr.o)
 .data          0x00000000        0x0 /home/wenda/opt/gcc-arm-none-eabi/bin/../lib/gcc/arm-none-eabi/5.4.1/../../../../arm-none-eabi/lib/armv7e-m/fpu/libc_nano.a(lib_a-memchr.o)
 .bss           0x00000000        0x0 /home/wenda/opt/gcc-arm-none-eabi/bin/../lib/gcc/arm-none-eabi/5.4.1/../../../../arm-none-eabi/lib/armv7e-m/fpu/libc_nano.a(lib_a-memchr.o)
 .text          0x00000000        0x0 /home/wenda/opt/gcc-arm-none-eabi/bin/../lib/gcc/arm-none-eabi/5.4.1/../../../../arm-none-eabi/lib/armv7e-m/fpu/libc_nano.a(lib_a-memmove.o)
 .data          0x00000000        0x0 /home/wenda/opt/gcc-arm-none-eabi/bin/../lib/gcc/arm-none-eabi/5.4.1/../../../../arm-none-eabi/lib/armv7e-m/fpu/libc_nano.a(lib_a-memmove.o)
 .bss           0x00000000        0x0 /home/wenda/opt/gcc-arm-none-eabi/bin/../lib/gcc/arm-none-eabi/5.4.1/../../../../arm-none-eabi/lib/armv7e-m/fpu/libc_nano.a(lib_a-memmove.o)
 .text.memmove  0x00000000       0x36 /home/wenda/opt/gcc-arm-none-eabi/bin/../lib/gcc/arm-none-eabi/5.4.1/../../../../arm-none-eabi/lib/armv7e-m/fpu/libc_nano.a(lib_a-memmove.o)
 .text          0x00000000        0x0 /home/wenda/opt/gcc-arm-none-eabi/bin/../lib/gcc/arm-none-eabi/5.4.1/../../../../arm-none-eabi/lib/armv7e-m/fpu/libc_nano.a(lib_a-nano-msizer.o)
 .data          0x00000000        0x0 /home/wenda/opt/gcc-arm-none-eabi/bin/../lib/gcc/arm-none-eabi/5.4.1/../../../../arm-none-eabi/lib/armv7e-m/fpu/libc_nano.a(lib_a-nano-msizer.o)
 .bss           0x00000000        0x0 /home/wenda/opt/gcc-arm-none-eabi/bin/../lib/gcc/arm-none-eabi/5.4.1/../../../../arm-none-eabi/lib/armv7e-m/fpu/libc_nano.a(lib_a-nano-msizer.o)
 .text          0x00000000        0x0 /home/wenda/opt/gcc-arm-none-eabi/bin/../lib/gcc/arm-none-eabi/5.4.1/../../../../arm-none-eabi/lib/armv7e-m/fpu/libc_nano.a(lib_a-readr.o)
 .data          0x00000000        0x0 /home/wenda/opt/gcc-arm-none-eabi/bin/../lib/gcc/arm-none-eabi/5.4.1/../../../../arm-none-eabi/lib/armv7e-m/fpu/libc_nano.a(lib_a-readr.o)
 .bss           0x00000000        0x0 /home/wenda/opt/gcc-arm-none-eabi/bin/../lib/gcc/arm-none-eabi/5.4.1/../../../../arm-none-eabi/lib/armv7e-m/fpu/libc_nano.a(lib_a-readr.o)
 .text          0x00000000        0x0 /home/wenda/opt/gcc-arm-none-eabi/bin/../lib/gcc/arm-none-eabi/5.4.1/../../../../arm-none-eabi/lib/armv7e-m/fpu/libnosys.a(close.o)
 .data          0x00000000        0x0 /home/wenda/opt/gcc-arm-none-eabi/bin/../lib/gcc/arm-none-eabi/5.4.1/../../../../arm-none-eabi/lib/armv7e-m/fpu/libnosys.a(close.o)
 .bss           0x00000000        0x0 /home/wenda/opt/gcc-arm-none-eabi/bin/../lib/gcc/arm-none-eabi/5.4.1/../../../../arm-none-eabi/lib/armv7e-m/fpu/libnosys.a(close.o)
 .text          0x00000000        0x0 /home/wenda/opt/gcc-arm-none-eabi/bin/../lib/gcc/arm-none-eabi/5.4.1/../../../../arm-none-eabi/lib/armv7e-m/fpu/libnosys.a(fstat.o)
 .data          0x00000000        0x0 /home/wenda/opt/gcc-arm-none-eabi/bin/../lib/gcc/arm-none-eabi/5.4.1/../../../../arm-none-eabi/lib/armv7e-m/fpu/libnosys.a(fstat.o)
 .bss           0x00000000        0x0 /home/wenda/opt/gcc-arm-none-eabi/bin/../lib/gcc/arm-none-eabi/5.4.1/../../../../arm-none-eabi/lib/armv7e-m/fpu/libnosys.a(fstat.o)
 .text          0x00000000        0x0 /home/wenda/opt/gcc-arm-none-eabi/bin/../lib/gcc/arm-none-eabi/5.4.1/../../../../arm-none-eabi/lib/armv7e-m/fpu/libnosys.a(getpid.o)
 .data          0x00000000        0x0 /home/wenda/opt/gcc-arm-none-eabi/bin/../lib/gcc/arm-none-eabi/5.4.1/../../../../arm-none-eabi/lib/armv7e-m/fpu/libnosys.a(getpid.o)
 .bss           0x00000000        0x0 /home/wenda/opt/gcc-arm-none-eabi/bin/../lib/gcc/arm-none-eabi/5.4.1/../../../../arm-none-eabi/lib/armv7e-m/fpu/libnosys.a(getpid.o)
 .text          0x00000000        0x0 /home/wenda/opt/gcc-arm-none-eabi/bin/../lib/gcc/arm-none-eabi/5.4.1/../../../../arm-none-eabi/lib/armv7e-m/fpu/libnosys.a(isatty.o)
 .data          0x00000000        0x0 /home/wenda/opt/gcc-arm-none-eabi/bin/../lib/gcc/arm-none-eabi/5.4.1/../../../../arm-none-eabi/lib/armv7e-m/fpu/libnosys.a(isatty.o)
 .bss           0x00000000        0x0 /home/wenda/opt/gcc-arm-none-eabi/bin/../lib/gcc/arm-none-eabi/5.4.1/../../../../arm-none-eabi/lib/armv7e-m/fpu/libnosys.a(isatty.o)
 .text          0x00000000        0x0 /home/wenda/opt/gcc-arm-none-eabi/bin/../lib/gcc/arm-none-eabi/5.4.1/../../../../arm-none-eabi/lib/armv7e-m/fpu/libnosys.a(kill.o)
 .data          0x00000000        0x0 /home/wenda/opt/gcc-arm-none-eabi/bin/../lib/gcc/arm-none-eabi/5.4.1/../../../../arm-none-eabi/lib/armv7e-m/fpu/libnosys.a(kill.o)
 .bss           0x00000000        0x0 /home/wenda/opt/gcc-arm-none-eabi/bin/../lib/gcc/arm-none-eabi/5.4.1/../../../../arm-none-eabi/lib/armv7e-m/fpu/libnosys.a(kill.o)
 .text          0x00000000        0x0 /home/wenda/opt/gcc-arm-none-eabi/bin/../lib/gcc/arm-none-eabi/5.4.1/../../../../arm-none-eabi/lib/armv7e-m/fpu/libnosys.a(lseek.o)
 .data          0x00000000        0x0 /home/wenda/opt/gcc-arm-none-eabi/bin/../lib/gcc/arm-none-eabi/5.4.1/../../../../arm-none-eabi/lib/armv7e-m/fpu/libnosys.a(lseek.o)
 .bss           0x00000000        0x0 /home/wenda/opt/gcc-arm-none-eabi/bin/../lib/gcc/arm-none-eabi/5.4.1/../../../../arm-none-eabi/lib/armv7e-m/fpu/libnosys.a(lseek.o)
 .text          0x00000000        0x0 /home/wenda/opt/gcc-arm-none-eabi/bin/../lib/gcc/arm-none-eabi/5.4.1/../../../../arm-none-eabi/lib/armv7e-m/fpu/libnosys.a(read.o)
 .data          0x00000000        0x0 /home/wenda/opt/gcc-arm-none-eabi/bin/../lib/gcc/arm-none-eabi/5.4.1/../../../../arm-none-eabi/lib/armv7e-m/fpu/libnosys.a(read.o)
 .bss           0x00000000        0x0 /home/wenda/opt/gcc-arm-none-eabi/bin/../lib/gcc/arm-none-eabi/5.4.1/../../../../arm-none-eabi/lib/armv7e-m/fpu/libnosys.a(read.o)
 .text          0x00000000        0x0 /home/wenda/opt/gcc-arm-none-eabi/bin/../lib/gcc/arm-none-eabi/5.4.1/../../../../arm-none-eabi/lib/armv7e-m/fpu/libnosys.a(sbrk.o)
 .data          0x00000000        0x0 /home/wenda/opt/gcc-arm-none-eabi/bin/../lib/gcc/arm-none-eabi/5.4.1/../../../../arm-none-eabi/lib/armv7e-m/fpu/libnosys.a(sbrk.o)
 .bss           0x00000000        0x0 /home/wenda/opt/gcc-arm-none-eabi/bin/../lib/gcc/arm-none-eabi/5.4.1/../../../../arm-none-eabi/lib/armv7e-m/fpu/libnosys.a(sbrk.o)
 .text          0x00000000        0x0 /home/wenda/opt/gcc-arm-none-eabi/bin/../lib/gcc/arm-none-eabi/5.4.1/../../../../arm-none-eabi/lib/armv7e-m/fpu/libnosys.a(write.o)
 .data          0x00000000        0x0 /home/wenda/opt/gcc-arm-none-eabi/bin/../lib/gcc/arm-none-eabi/5.4.1/../../../../arm-none-eabi/lib/armv7e-m/fpu/libnosys.a(write.o)
 .bss           0x00000000        0x0 /home/wenda/opt/gcc-arm-none-eabi/bin/../lib/gcc/arm-none-eabi/5.4.1/../../../../arm-none-eabi/lib/armv7e-m/fpu/libnosys.a(write.o)
 .text          0x00000000        0x0 /home/wenda/opt/gcc-arm-none-eabi/bin/../lib/gcc/arm-none-eabi/5.4.1/../../../../arm-none-eabi/lib/armv7e-m/fpu/libnosys.a(_exit.o)
 .data          0x00000000        0x0 /home/wenda/opt/gcc-arm-none-eabi/bin/../lib/gcc/arm-none-eabi/5.4.1/../../../../arm-none-eabi/lib/armv7e-m/fpu/libnosys.a(_exit.o)
 .bss           0x00000000        0x0 /home/wenda/opt/gcc-arm-none-eabi/bin/../lib/gcc/arm-none-eabi/5.4.1/../../../../arm-none-eabi/lib/armv7e-m/fpu/libnosys.a(_exit.o)
 .text          0x00000000        0x0 /home/wenda/opt/gcc-arm-none-eabi/bin/../lib/gcc/arm-none-eabi/5.4.1/armv7e-m/fpu/crtend.o
 .data          0x00000000        0x0 /home/wenda/opt/gcc-arm-none-eabi/bin/../lib/gcc/arm-none-eabi/5.4.1/armv7e-m/fpu/crtend.o
 .bss           0x00000000        0x0 /home/wenda/opt/gcc-arm-none-eabi/bin/../lib/gcc/arm-none-eabi/5.4.1/armv7e-m/fpu/crtend.o
 .text          0x00000000        0x0 /home/wenda/opt/gcc-arm-none-eabi/bin/../lib/gcc/arm-none-eabi/5.4.1/armv7e-m/fpu/crtn.o
 .data          0x00000000        0x0 /home/wenda/opt/gcc-arm-none-eabi/bin/../lib/gcc/arm-none-eabi/5.4.1/armv7e-m/fpu/crtn.o
 .bss           0x00000000        0x0 /home/wenda/opt/gcc-arm-none-eabi/bin/../lib/gcc/arm-none-eabi/5.4.1/armv7e-m/fpu/crtn.o

Memory Configuration

Name             Origin             Length             Attributes
*default*        0x00000000         0xffffffff

Linker script and memory map

LOAD /home/wenda/opt/gcc-arm-none-eabi/bin/../lib/gcc/arm-none-eabi/5.4.1/armv7e-m/fpu/crti.o
LOAD /home/wenda/opt/gcc-arm-none-eabi/bin/../lib/gcc/arm-none-eabi/5.4.1/armv7e-m/fpu/crtbegin.o
LOAD /home/wenda/opt/gcc-arm-none-eabi/bin/../lib/gcc/arm-none-eabi/5.4.1/../../../../arm-none-eabi/lib/armv7e-m/fpu/crt0.o
LOAD tensorflow/lite/experimental/micro/micro_error_reporter.o
LOAD tensorflow/lite/experimental/micro/micro_mutable_op_resolver.o
LOAD tensorflow/lite/experimental/micro/simple_tensor_allocator.o
LOAD tensorflow/lite/experimental/micro/debug_log.o
LOAD tensorflow/lite/experimental/micro/debug_log_numbers.o
LOAD tensorflow/lite/experimental/micro/micro_interpreter.o
LOAD tensorflow/lite/experimental/micro/kernels/depthwise_conv.o
LOAD tensorflow/lite/experimental/micro/kernels/softmax.o
LOAD tensorflow/lite/experimental/micro/kernels/all_ops_resolver.o
LOAD tensorflow/lite/experimental/micro/kernels/fully_connected.o
LOAD tensorflow/lite/c/c_api_internal.o
LOAD tensorflow/lite/core/api/error_reporter.o
LOAD tensorflow/lite/core/api/flatbuffer_conversions.o
LOAD tensorflow/lite/core/api/op_resolver.o
LOAD tensorflow/lite/kernels/kernel_util.o
LOAD tensorflow/lite/kernels/internal/quantization_util.o
LOAD tensorflow/lite/experimental/micro/examples/micro_speech/model_settings.o
LOAD tensorflow/lite/experimental/micro/examples/micro_speech/audio_provider.o
LOAD tensorflow/lite/experimental/micro/examples/micro_speech/feature_provider.o
LOAD tensorflow/lite/experimental/micro/examples/micro_speech/preprocessor.o
LOAD tensorflow/lite/experimental/micro/examples/micro_speech/no_features_data.o
LOAD tensorflow/lite/experimental/micro/examples/micro_speech/yes_features_data.o
LOAD tensorflow/lite/experimental/micro/examples/micro_speech/tiny_conv_model_data.o
LOAD tensorflow/lite/experimental/micro/examples/micro_speech/recognize_commands.o
LOAD machinelearning.o
LOAD tfmicro_models.o
LOAD tf_micro_model_backup.o
LOAD main.o
LOAD /home/wenda/opt/gcc-arm-none-eabi/bin/../lib/gcc/arm-none-eabi/5.4.1/../../../../arm-none-eabi/lib/armv7e-m/fpu/libstdc++_nano.a
LOAD /home/wenda/opt/gcc-arm-none-eabi/bin/../lib/gcc/arm-none-eabi/5.4.1/../../../../arm-none-eabi/lib/armv7e-m/fpu/libm.a
START GROUP
LOAD /home/wenda/opt/gcc-arm-none-eabi/bin/../lib/gcc/arm-none-eabi/5.4.1/armv7e-m/fpu/libgcc.a
LOAD /home/wenda/opt/gcc-arm-none-eabi/bin/../lib/gcc/arm-none-eabi/5.4.1/../../../../arm-none-eabi/lib/armv7e-m/fpu/libc_nano.a
END GROUP
START GROUP
LOAD /home/wenda/opt/gcc-arm-none-eabi/bin/../lib/gcc/arm-none-eabi/5.4.1/armv7e-m/fpu/libgcc.a
LOAD /home/wenda/opt/gcc-arm-none-eabi/bin/../lib/gcc/arm-none-eabi/5.4.1/../../../../arm-none-eabi/lib/armv7e-m/fpu/libc_nano.a
LOAD /home/wenda/opt/gcc-arm-none-eabi/bin/../lib/gcc/arm-none-eabi/5.4.1/../../../../arm-none-eabi/lib/armv7e-m/fpu/libnosys.a
END GROUP
START GROUP
LOAD /home/wenda/opt/gcc-arm-none-eabi/bin/../lib/gcc/arm-none-eabi/5.4.1/armv7e-m/fpu/libgcc.a
LOAD /home/wenda/opt/gcc-arm-none-eabi/bin/../lib/gcc/arm-none-eabi/5.4.1/../../../../arm-none-eabi/lib/armv7e-m/fpu/libc_nano.a
LOAD /home/wenda/opt/gcc-arm-none-eabi/bin/../lib/gcc/arm-none-eabi/5.4.1/../../../../arm-none-eabi/lib/armv7e-m/fpu/libnosys.a
END GROUP
LOAD /home/wenda/opt/gcc-arm-none-eabi/bin/../lib/gcc/arm-none-eabi/5.4.1/armv7e-m/fpu/crtend.o
LOAD /home/wenda/opt/gcc-arm-none-eabi/bin/../lib/gcc/arm-none-eabi/5.4.1/armv7e-m/fpu/crtn.o
                [!provide]                PROVIDE (__executable_start, 0x8000)
                0x00008000                . = 0x8000

.interp
 *(.interp)

.note.gnu.build-id
 *(.note.gnu.build-id)

.hash
 *(.hash)

.gnu.hash
 *(.gnu.hash)

.dynsym
 *(.dynsym)

.dynstr
 *(.dynstr)

.gnu.version
 *(.gnu.version)

.gnu.version_d
 *(.gnu.version_d)

.gnu.version_r
 *(.gnu.version_r)

.rel.dyn        0x00008000        0x0
 *(.rel.init)
 *(.rel.text .rel.text.* .rel.gnu.linkonce.t.*)
 *(.rel.fini)
 *(.rel.rodata .rel.rodata.* .rel.gnu.linkonce.r.*)
 *(.rel.data.rel.ro .rel.data.rel.ro.* .rel.gnu.linkonce.d.rel.ro.*)
 *(.rel.data .rel.data.* .rel.gnu.linkonce.d.*)
 *(.rel.tdata .rel.tdata.* .rel.gnu.linkonce.td.*)
 *(.rel.tbss .rel.tbss.* .rel.gnu.linkonce.tb.*)
 *(.rel.ctors)
 *(.rel.dtors)
 *(.rel.got)
 *(.rel.bss .rel.bss.* .rel.gnu.linkonce.b.*)
                [!provide]                PROVIDE (__rel_iplt_start, .)
 *(.rel.iplt)
 .rel.iplt      0x00008000        0x0 /home/wenda/opt/gcc-arm-none-eabi/bin/../lib/gcc/arm-none-eabi/5.4.1/armv7e-m/fpu/crtbegin.o
                [!provide]                PROVIDE (__rel_iplt_end, .)

.rela.dyn       0x00008000        0x0
 *(.rela.init)
 *(.rela.text .rela.text.* .rela.gnu.linkonce.t.*)
 *(.rela.fini)
 *(.rela.rodata .rela.rodata.* .rela.gnu.linkonce.r.*)
 *(.rela.data .rela.data.* .rela.gnu.linkonce.d.*)
 *(.rela.tdata .rela.tdata.* .rela.gnu.linkonce.td.*)
 *(.rela.tbss .rela.tbss.* .rela.gnu.linkonce.tb.*)
 *(.rela.ctors)
 *(.rela.dtors)
 *(.rela.got)
 *(.rela.bss .rela.bss.* .rela.gnu.linkonce.b.*)
                [!provide]                PROVIDE (__rela_iplt_start, .)
 *(.rela.iplt)
                [!provide]                PROVIDE (__rela_iplt_end, .)

.rel.plt
 *(.rel.plt)

.rela.plt
 *(.rela.plt)

.init           0x00008000        0xc
 *(SORT(.init))
 .init          0x00008000        0x4 /home/wenda/opt/gcc-arm-none-eabi/bin/../lib/gcc/arm-none-eabi/5.4.1/armv7e-m/fpu/crti.o
                0x00008000                _init
 .init          0x00008004        0x8 /home/wenda/opt/gcc-arm-none-eabi/bin/../lib/gcc/arm-none-eabi/5.4.1/armv7e-m/fpu/crtn.o

.plt
 *(.plt)

.iplt           0x0000800c        0x0
 *(.iplt)
 .iplt          0x0000800c        0x0 /home/wenda/opt/gcc-arm-none-eabi/bin/../lib/gcc/arm-none-eabi/5.4.1/armv7e-m/fpu/crtbegin.o

.text           0x00008010     0x80a8
 *(.text.unlikely .text.*_unlikely .text.unlikely.*)
 *(.text.exit .text.exit.*)
 .text.exit     0x00008010       0x28 /home/wenda/opt/gcc-arm-none-eabi/bin/../lib/gcc/arm-none-eabi/5.4.1/../../../../arm-none-eabi/lib/armv7e-m/fpu/libc_nano.a(lib_a-exit.o)
                0x00008010                exit
 *(.text.startup .text.startup.*)
 .text.startup  0x00008038       0x40 main.o
                0x00008038                main
 *(.text.hot .text.hot.*)
 *(.text .stub .text.* .gnu.linkonce.t.*)
 .text          0x00008078       0x5c /home/wenda/opt/gcc-arm-none-eabi/bin/../lib/gcc/arm-none-eabi/5.4.1/armv7e-m/fpu/crtbegin.o
 .text          0x000080d4       0x74 /home/wenda/opt/gcc-arm-none-eabi/bin/../lib/gcc/arm-none-eabi/5.4.1/../../../../arm-none-eabi/lib/armv7e-m/fpu/crt0.o
                0x000080d4                _mainCRTStartup
                0x000080d4                _start
 .text          0x00008148       0x90 tensorflow/lite/experimental/micro/micro_error_reporter.o
                0x00008148                tflite::MicroErrorReporter::Report(char const*, std::__va_list)
 .text._ZN6tflite18MicroErrorReporterD0Ev
                0x000081d8        0x2 tensorflow/lite/experimental/micro/micro_error_reporter.o
                0x000081d8                tflite::MicroErrorReporter::~MicroErrorReporter()
                0x000081d8                tflite::MicroErrorReporter::~MicroErrorReporter()
                0x000081d8                tflite::MicroErrorReporter::~MicroErrorReporter()
 .text          0x000081da      0x10e tensorflow/lite/experimental/micro/micro_mutable_op_resolver.o
                0x000081da                tflite::MicroMutableOpResolver::FindOp(tflite::BuiltinOperator, int) const
                0x00008208                tflite::MicroMutableOpResolver::FindOp(char const*, int) const
                0x0000824c                tflite::MicroMutableOpResolver::AddBuiltin(tflite::BuiltinOperator, _TfLiteRegistration*, int, int)
                0x00008296                tflite::MicroMutableOpResolver::AddCustom(char const*, _TfLiteRegistration*, int, int)
 .text._ZN6tflite22MicroMutableOpResolverD0Ev
                0x000082e8        0x2 tensorflow/lite/experimental/micro/micro_mutable_op_resolver.o
                0x000082e8                tflite::MicroMutableOpResolver::~MicroMutableOpResolver()
                0x000082e8                tflite::MicroMutableOpResolver::~MicroMutableOpResolver()
                0x000082e8                tflite::MicroMutableOpResolver::~MicroMutableOpResolver()
 *fill*         0x000082ea        0x2 
 .text          0x000082ec      0x21c tensorflow/lite/experimental/micro/simple_tensor_allocator.o
                0x00008344                tflite::SimpleTensorAllocator::AllocateMemory(unsigned int, unsigned int)
                0x0000836a                tflite::SimpleTensorAllocator::AllocateTensor(tflite::Tensor const&, int, int, flatbuffers::Vector<flatbuffers::Offset<tflite::Buffer> > const*, tflite::ErrorReporter*, TfLiteTensor*)
 .text._ZNK11flatbuffers5Table22GetOptionalFieldOffsetEt
                0x00008508       0x10 tensorflow/lite/experimental/micro/simple_tensor_allocator.o
                0x00008508                flatbuffers::Table::GetOptionalFieldOffset(unsigned short) const
 .text._ZNK6tflite6Tensor4typeEv
                0x00008518       0x12 tensorflow/lite/experimental/micro/simple_tensor_allocator.o
                0x00008518                tflite::Tensor::type() const
 .text._ZN11flatbuffers5Table10GetPointerIPKN6tflite22QuantizationParametersEEET_t
                0x0000852a       0x12 tensorflow/lite/experimental/micro/simple_tensor_allocator.o
                0x0000852a                tflite::QuantizationParameters const* flatbuffers::Table::GetPointer<tflite::QuantizationParameters const*>(unsigned short)
 .text          0x0000853c       0x10 tensorflow/lite/experimental/micro/debug_log.o
                0x0000853c                DebugLog
 .text          0x0000854c      0x1b0 tensorflow/lite/experimental/micro/debug_log_numbers.o
                0x000085b4                DebugLogInt32
                0x000085e0                DebugLogUInt32
                0x000085f8                DebugLogHex
                0x00008610                DebugLogFloat
 .text          0x000086fc      0x558 tensorflow/lite/experimental/micro/micro_interpreter.o
                0x0000872a                tflite::MicroInterpreter::output(int)
                0x00008764                tflite::MicroInterpreter::input(int)
                0x000087a0                tflite::MicroInterpreter::MicroInterpreter(tflite::Model const*, tflite::OpResolver const&, tflite::SimpleTensorAllocator*, tflite::ErrorReporter*)
                0x000087a0                tflite::MicroInterpreter::MicroInterpreter(tflite::Model const*, tflite::OpResolver const&, tflite::SimpleTensorAllocator*, tflite::ErrorReporter*)
                0x000089f0                tflite::MicroInterpreter::Invoke()
 .text._ZNK6tflite6Tensor11is_variableEv
                0x00008c54       0x16 tensorflow/lite/experimental/micro/micro_interpreter.o
                0x00008c54                tflite::Tensor::is_variable() const
 .text._ZN11flatbuffers5Table10GetPointerIPKNS_6VectorINS_6OffsetIN6tflite6BufferEEEEEEET_t
                0x00008c6a       0x12 tensorflow/lite/experimental/micro/micro_interpreter.o
                0x00008c6a                flatbuffers::Vector<flatbuffers::Offset<tflite::Buffer> > const* flatbuffers::Table::GetPointer<flatbuffers::Vector<flatbuffers::Offset<tflite::Buffer> > const*>(unsigned short)
 .text          0x00008c7c      0x300 tensorflow/lite/experimental/micro/kernels/depthwise_conv.o
                0x00008c7c                tflite::ops::micro::depthwise_conv::Init(TfLiteContext*, char const*, unsigned int)
                0x00008c80                tflite::ops::micro::depthwise_conv::Free(TfLiteContext*, void*)
                0x00008c82                tflite::ops::micro::depthwise_conv::Prepare(TfLiteContext*, TfLiteNode*)
                0x00008c86                tflite::ops::micro::depthwise_conv::Eval(TfLiteContext*, TfLiteNode*)
                0x00008f74                tflite::ops::micro::Register_DEPTHWISE_CONV_2D()
 .text._ZN6tflite12RuntimeShapeD2Ev
                0x00008f7c        0xe tensorflow/lite/experimental/micro/kernels/depthwise_conv.o
                0x00008f7c                tflite::RuntimeShape::~RuntimeShape()
                0x00008f7c                tflite::RuntimeShape::~RuntimeShape()
 .text._ZNK6tflite12RuntimeShape4DimsEi
                0x00008f8a       0x14 tensorflow/lite/experimental/micro/kernels/depthwise_conv.o
                0x00008f8a                tflite::RuntimeShape::Dims(int) const
 .text._ZN6tflite14GetTensorShapeEPK12TfLiteTensor
                0x00008f9e       0x26 tensorflow/lite/experimental/micro/kernels/depthwise_conv.o
                0x00008f9e                tflite::GetTensorShape(TfLiteTensor const*)
 .text._ZN6tflite13reference_ops13DepthwiseConvERKNS_15DepthwiseParamsERKNS_12RuntimeShapeEPKfS6_S8_S6_S8_S6_Pf
                0x00008fc4      0x214 tensorflow/lite/experimental/micro/kernels/depthwise_conv.o
                0x00008fc4                tflite::reference_ops::DepthwiseConv(tflite::DepthwiseParams const&, tflite::RuntimeShape const&, float const*, tflite::RuntimeShape const&, float const*, tflite::RuntimeShape const&, float const*, tflite::RuntimeShape const&, float*)
 .text._ZN6tflite13reference_ops13DepthwiseConvERKNS_15DepthwiseParamsERKNS_12RuntimeShapeEPKhS6_S8_S6_PKlS6_Ph
                0x000091d8      0x290 tensorflow/lite/experimental/micro/kernels/depthwise_conv.o
                0x000091d8                tflite::reference_ops::DepthwiseConv(tflite::DepthwiseParams const&, tflite::RuntimeShape const&, unsigned char const*, tflite::RuntimeShape const&, unsigned char const*, tflite::RuntimeShape const&, long const*, tflite::RuntimeShape const&, unsigned char*)
 .text          0x00009468      0x290 tensorflow/lite/experimental/micro/kernels/softmax.o
                0x00009468                tflite::ops::micro::activations::Init(TfLiteContext*, char const*, unsigned int)
                0x0000946c                tflite::ops::micro::activations::Free(TfLiteContext*, void*)
                0x0000946e                tflite::ops::micro::activations::SoftmaxPrepare(TfLiteContext*, TfLiteNode*)
                0x00009472                tflite::ops::micro::activations::Softmax1DFloat(TfLiteTensor const*, TfLiteTensor*, TfLiteSoftmaxParams*)
                0x00009488                tflite::ops::micro::activations::Softmax2DFloat(TfLiteTensor const*, TfLiteTensor*, TfLiteSoftmaxParams*)
                0x0000949e                tflite::ops::micro::activations::Softmax4DFloat(TfLiteTensor const*, TfLiteTensor*, TfLiteSoftmaxParams*)
                0x000094f0                tflite::ops::micro::Register_SOFTMAX()
                0x000094f8                tflite::ops::micro::activations::SoftmaxEval(TfLiteContext*, TfLiteNode*)
 .text._ZN8gemmlowp33SaturatingRoundingDoublingHighMulIlEET_S1_S1_
                0x000096f8       0x50 tensorflow/lite/experimental/micro/kernels/softmax.o
                0x000096f8                long gemmlowp::SaturatingRoundingDoublingHighMul<long>(long, long)
 .text._ZN6tflite12RuntimeShape11ReplaceWithEiPKl
                0x00009748       0x22 tensorflow/lite/experimental/micro/kernels/softmax.o
                0x00009748                tflite::RuntimeShape::ReplaceWith(int, long const*)
 .text._ZN6tflite15FlatSizeSkipDimERKNS_12RuntimeShapeEi
                0x0000976a       0x26 tensorflow/lite/experimental/micro/kernels/softmax.o
                0x0000976a                tflite::FlatSizeSkipDim(tflite::RuntimeShape const&, int)
 .text._ZN6tflite13reference_ops7SoftmaxERKNS_13SoftmaxParamsERKNS_12RuntimeShapeEPKfS6_Pf
                0x00009790      0x12c tensorflow/lite/experimental/micro/kernels/softmax.o
                0x00009790                tflite::reference_ops::Softmax(tflite::SoftmaxParams const&, tflite::RuntimeShape const&, float const*, tflite::RuntimeShape const&, float*)
 .text._ZN6tflite13reference_ops7SoftmaxEPKfiifPf
                0x000098bc       0xb0 tensorflow/lite/experimental/micro/kernels/softmax.o
                0x000098bc                tflite::reference_ops::Softmax(float const*, int, int, float, float*)
 .text._ZN8gemmlowp19RoundingDivideByPOTIlEET_S1_i
                0x0000996c       0x28 tensorflow/lite/experimental/micro/kernels/softmax.o
                0x0000996c                long gemmlowp::RoundingDivideByPOT<long>(long, int)
 .text._ZN8gemmlowpmlIlLi0ELi0EEENS_10FixedPointIT_XplT0_T1_EEENS1_IS2_XT0_EEENS1_IS2_XT1_EEE
                0x00009994        0x8 tensorflow/lite/experimental/micro/kernels/softmax.o
                0x00009994                gemmlowp::FixedPoint<long, (0)+(0)> gemmlowp::operator*<long, 0, 0>(gemmlowp::FixedPoint<long, 0>, gemmlowp::FixedPoint<long, 0>)
 .text._ZN8gemmlowp26RescaleConstantInitializerINS_10FixedPointIlLi0EEEEENT_13ScalarRawTypeEl
                0x0000999c        0xa tensorflow/lite/experimental/micro/kernels/softmax.o
                0x0000999c                gemmlowp::FixedPoint<long, 0>::ScalarRawType gemmlowp::RescaleConstantInitializer<gemmlowp::FixedPoint<long, 0> >(long)
 *fill*         0x000099a6        0x2 
 .text._ZN8gemmlowp55exp_on_interval_between_negative_one_quarter_and_0_exclIlEENS_10FixedPointIT_Li0EEES3_
                0x000099a8       0x60 tensorflow/lite/experimental/micro/kernels/softmax.o
                0x000099a8                gemmlowp::FixedPoint<long, 0> gemmlowp::exp_on_interval_between_negative_one_quarter_and_0_excl<long>(gemmlowp::FixedPoint<long, 0>)
 .text._ZN8gemmlowp22exp_on_negative_valuesIlLi5EEENS_10FixedPointIT_Li0EEENS1_IS2_XT0_EEE
                0x00009a08       0xf8 tensorflow/lite/experimental/micro/kernels/softmax.o
                0x00009a08                gemmlowp::FixedPoint<long, 0> gemmlowp::exp_on_negative_values<long, 5>(gemmlowp::FixedPoint<long, 5>)
 .text._ZN8gemmlowp32one_over_one_plus_x_for_x_in_0_1IlEENS_10FixedPointIT_Li0EEES3_
                0x00009b00      0x148 tensorflow/lite/experimental/micro/kernels/softmax.o
                0x00009b00                gemmlowp::FixedPoint<long, 0> gemmlowp::one_over_one_plus_x_for_x_in_0_1<long>(gemmlowp::FixedPoint<long, 0>)
 .text._ZN6tflite13reference_ops7SoftmaxERKNS_13SoftmaxParamsERKNS_12RuntimeShapeEPKhS6_Ph
                0x00009c48      0x148 tensorflow/lite/experimental/micro/kernels/softmax.o
                0x00009c48                tflite::reference_ops::Softmax(tflite::SoftmaxParams const&, tflite::RuntimeShape const&, unsigned char const*, tflite::RuntimeShape const&, unsigned char*)
 .text          0x00009d90       0x60 tensorflow/lite/experimental/micro/kernels/all_ops_resolver.o
                0x00009d90                tflite::ops::micro::Micro_Register_DEPTHWISE_CONV_2D()
                0x00009d94                tflite::ops::micro::Micro_Register_FULLY_CONNECTED()
                0x00009d98                tflite::ops::micro::Micro_Register_SOFTMAX()
                0x00009d9c                tflite::ops::micro::AllOpsResolver::AllOpsResolver()
                0x00009d9c                tflite::ops::micro::AllOpsResolver::AllOpsResolver()
 .text._ZN6tflite3ops5micro14AllOpsResolverD0Ev
                0x00009df0        0x2 tensorflow/lite/experimental/micro/kernels/all_ops_resolver.o
                0x00009df0                tflite::ops::micro::AllOpsResolver::~AllOpsResolver()
                0x00009df0                tflite::ops::micro::AllOpsResolver::~AllOpsResolver()
                0x00009df0                tflite::ops::micro::AllOpsResolver::~AllOpsResolver()
 *fill*         0x00009df2        0x2 
 .text          0x00009df4      0x440 tensorflow/lite/experimental/micro/kernels/fully_connected.o
                0x00009df4                tflite::ops::micro::fully_connected::Init(TfLiteContext*, char const*, unsigned int)
                0x00009df8                tflite::ops::micro::fully_connected::Free(TfLiteContext*, void*)
                0x00009dfa                tflite::ops::micro::fully_connected::Prepare(TfLiteContext*, TfLiteNode*)
                0x00009dfe                tflite::ops::micro::fully_connected::Eval(TfLiteContext*, TfLiteNode*)
                0x0000a22c                tflite::ops::micro::Register_FULLY_CONNECTED()
 .text._ZN6tflite29MultiplyByQuantizedMultiplierElli
                0x0000a234       0x80 tensorflow/lite/experimental/micro/kernels/fully_connected.o
                0x0000a234                tflite::MultiplyByQuantizedMultiplier(long, long, int)
 .text          0x0000a2b4      0x1a0 tensorflow/lite/c/c_api_internal.o
                0x0000a2b4                TfLiteIntArrayGetSizeInBytes
                0x0000a2ba                TfLiteIntArrayEqualsArray
                0x0000a2ea                TfLiteIntArrayEqual
                0x0000a304                TfLiteIntArrayCreate
                0x0000a314                TfLiteIntArrayPrint
                0x0000a360                TfLiteIntArrayCopy
                0x0000a386                TfLiteIntArrayFree
                0x0000a38a                TfLiteTensorDataFree
                0x0000a3a2                TfLiteTensorFree
                0x0000a3b8                TfLiteTensorReset
                0x0000a402                TfLiteTensorRealloc
                0x0000a42c                TfLiteTypeGetName
                0x0000a444                TfLiteDelegateCreate
 .text          0x0000a454       0x38 tensorflow/lite/core/api/error_reporter.o
                0x0000a454                tflite::ErrorReporter::Report(char const*, ...)
                0x0000a470                tflite::ErrorReporter::ReportError(void*, char const*, ...)
 .text          0x0000a48c      0xd90 tensorflow/lite/core/api/flatbuffer_conversions.o
                0x0000a4e4                tflite::ConvertTensorType(tflite::TensorType, TfLiteType*, tflite::ErrorReporter*)
                0x0000a53c                tflite::ParseOpData(tflite::Operator const*, tflite::BuiltinOperator, tflite::ErrorReporter*, tflite::BuiltinDataAllocator*, void**)
 .text._ZNK11flatbuffers5Table8GetFieldIhEET_tS2_
                0x0000b21c       0x14 tensorflow/lite/core/api/flatbuffer_conversions.o
                0x0000b21c                unsigned char flatbuffers::Table::GetField<unsigned char>(unsigned short, unsigned char) const
 .text._ZNK6tflite8Operator20builtin_options_typeEv
                0x0000b230        0xc tensorflow/lite/core/api/flatbuffer_conversions.o
                0x0000b230                tflite::Operator::builtin_options_type() const
 .text._ZNK11flatbuffers5Table8GetFieldIaEET_tS2_
                0x0000b23c       0x14 tensorflow/lite/core/api/flatbuffer_conversions.o
                0x0000b23c                signed char flatbuffers::Table::GetField<signed char>(unsigned short, signed char) const
 .text._ZNK11flatbuffers5Table8GetFieldIlEET_tS2_
                0x0000b250       0x14 tensorflow/lite/core/api/flatbuffer_conversions.o
                0x0000b250                long flatbuffers::Table::GetField<long>(unsigned short, long) const
 .text._ZNK11flatbuffers5Table8GetFieldIfEET_tS2_
                0x0000b264       0x24 tensorflow/lite/core/api/flatbuffer_conversions.o
                0x0000b264                float flatbuffers::Table::GetField<float>(unsigned short, float) const
 .text._ZN6tflite20BuiltinDataAllocator11AllocatePODI26TfLiteFullyConnectedParamsEEPT_v
                0x0000b288        0x8 tensorflow/lite/core/api/flatbuffer_conversions.o
                0x0000b288                TfLiteFullyConnectedParams* tflite::BuiltinDataAllocator::AllocatePOD<TfLiteFullyConnectedParams>()
 .text._ZN6tflite20BuiltinDataAllocator11AllocatePODI19TfLiteSqueezeParamsEEPT_v
                0x0000b290        0x8 tensorflow/lite/core/api/flatbuffer_conversions.o
                0x0000b290                TfLiteSqueezeParams* tflite::BuiltinDataAllocator::AllocatePOD<TfLiteSqueezeParams>()
 .text._ZN6tflite20BuiltinDataAllocator11AllocatePODI25TfLiteTransposeConvParamsEEPT_v
                0x0000b298        0x8 tensorflow/lite/core/api/flatbuffer_conversions.o
                0x0000b298                TfLiteTransposeConvParams* tflite::BuiltinDataAllocator::AllocatePOD<TfLiteTransposeConvParams>()
 .text._ZN6tflite20BuiltinDataAllocator11AllocatePODI21TfLiteFakeQuantParamsEEPT_v
                0x0000b2a0        0x8 tensorflow/lite/core/api/flatbuffer_conversions.o
                0x0000b2a0                TfLiteFakeQuantParams* tflite::BuiltinDataAllocator::AllocatePOD<TfLiteFakeQuantParams>()
 .text._ZN6tflite20BuiltinDataAllocator11AllocatePODI18TfLiteUnpackParamsEEPT_v
                0x0000b2a8        0x8 tensorflow/lite/core/api/flatbuffer_conversions.o
                0x0000b2a8                TfLiteUnpackParams* tflite::BuiltinDataAllocator::AllocatePOD<TfLiteUnpackParams>()
 .text._ZN6tflite20BuiltinDataAllocator11AllocatePODI21TfLiteLeakyReluParamsEEPT_v
                0x0000b2b0        0x8 tensorflow/lite/core/api/flatbuffer_conversions.o
                0x0000b2b0                TfLiteLeakyReluParams* tflite::BuiltinDataAllocator::AllocatePOD<TfLiteLeakyReluParams>()
 .text._ZN6tflite20BuiltinDataAllocator11AllocatePODI18TfLiteUniqueParamsEEPT_v
                0x0000b2b8        0x8 tensorflow/lite/core/api/flatbuffer_conversions.o
                0x0000b2b8                TfLiteUniqueParams* tflite::BuiltinDataAllocator::AllocatePOD<TfLiteUniqueParams>()
 .text._ZN11flatbuffers5Table10GetPointerIPKNS_6VectorIlEEEET_t
                0x0000b2c0       0x12 tensorflow/lite/core/api/flatbuffer_conversions.o
                0x0000b2c0                flatbuffers::Vector<long> const* flatbuffers::Table::GetPointer<flatbuffers::Vector<long> const*>(unsigned short)
 .text._ZNK6tflite8Operator15builtin_optionsEv
                0x0000b2d2        0xa tensorflow/lite/core/api/flatbuffer_conversions.o
                0x0000b2d2                tflite::Operator::builtin_options() const
 .text          0x0000b2dc       0xc4 tensorflow/lite/core/api/op_resolver.o
                0x0000b2dc                tflite::GetRegistrationFromOpCode(tflite::OperatorCode const*, tflite::OpResolver const&, tflite::ErrorReporter*, _TfLiteRegistration const**)
 .text          0x0000b3a0      0x21c tensorflow/lite/kernels/kernel_util.o
                0x0000b454                tflite::GetQuantizedConvolutionMultipler(TfLiteContext*, TfLiteTensor const*, TfLiteTensor const*, TfLiteTensor const*, TfLiteTensor*, double*)
                0x0000b528                tflite::CalculateActivationRangeQuantized(TfLiteContext*, TfLiteFusedActivation, TfLiteTensor*, long*, long*)
                0x0000b57c                tflite::CalculateActivationRangeUint8(TfLiteFusedActivation, TfLiteTensor*, long*, long*)
                0x0000b592                tflite::CalculateActivationRangeInt8(TfLiteFusedActivation, TfLiteTensor*, long*, long*)
                0x0000b5aa                tflite::HaveSameShapes(TfLiteTensor const*, TfLiteTensor const*)
 *fill*         0x0000b5bc        0x4 
 .text          0x0000b5c0      0x67c tensorflow/lite/kernels/internal/quantization_util.o
                0x0000b5c0                tflite::QuantizeMultiplier(double, long*, int*)
                0x0000b644                tflite::QuantizeMultiplierGreaterThanOne(double, long*, int*)
                0x0000b688                tflite::QuantizeMultiplierSmallerThanOneExp(double, long*, int*)
                0x0000b6dc                tflite::IntegerFrExp(double, int*)
                0x0000b79c                tflite::DoubleFromFractionAndShift(long long, int)
                0x0000b8ac                tflite::IntegerDoubleMultiply(double, double)
                0x0000b908                tflite::IntegerDoubleCompare(double, double)
                0x0000b976                tflite::PreprocessSoftmaxScaling(double, double, int, long*, int*)
                0x0000b9e8                tflite::PreprocessLogSoftmaxScalingExp(double, double, int, long*, int*, long*, int*)
                0x0000ba2e                tflite::CalculateInputRadius(int, int)
                0x0000ba92                tflite::NudgeQuantizationRange(float, float, int, int, float*, float*, float*)
                0x0000bb3a                tflite::FakeQuantizeArray(float, float, float, float const*, float*, float)
                0x0000bbca                tflite::CheckedLog2(float, int*)
 .text          0x0000bc3c      0x250 machinelearning.o
                0x0000bc3c                CTfLiteModel_create
                0x0000bc48                CTfLiteModel_destroy
                0x0000bc4c                CTfLiteModel_version
                0x0000bc66                CTfInterpreter_create_return_version
                0x0000bcc8                CTfLiteModel_dimensions
                0x0000bd20                CTfInterpreter_simple_fc
                0x0000bdb0                CTfInterpreter_simple_conv
                0x0000be34                machine_learning_test
                0x0000be88                testDoubleFunction
 .text._ZdlPv   0x0000be8c        0x4 /home/wenda/opt/gcc-arm-none-eabi/bin/../lib/gcc/arm-none-eabi/5.4.1/../../../../arm-none-eabi/lib/armv7e-m/fpu/libstdc++_nano.a(del_op.o)
                0x0000be8c                operator delete(void*)
 .text._ZN10__cxxabiv120__si_class_type_infoD2Ev
                0x0000be90       0x14 /home/wenda/opt/gcc-arm-none-eabi/bin/../lib/gcc/arm-none-eabi/5.4.1/../../../../arm-none-eabi/lib/armv7e-m/fpu/libstdc++_nano.a(si_class_type_info.o)
                0x0000be90                __cxxabiv1::__si_class_type_info::~__si_class_type_info()
                0x0000be90                __cxxabiv1::__si_class_type_info::~__si_class_type_info()
 .text._ZN10__cxxabiv120__si_class_type_infoD0Ev
                0x0000bea4       0x12 /home/wenda/opt/gcc-arm-none-eabi/bin/../lib/gcc/arm-none-eabi/5.4.1/../../../../arm-none-eabi/lib/armv7e-m/fpu/libstdc++_nano.a(si_class_type_info.o)
                0x0000bea4                __cxxabiv1::__si_class_type_info::~__si_class_type_info()
 .text._ZNK10__cxxabiv120__si_class_type_info12__do_dyncastEiNS_17__class_type_info10__sub_kindEPKS1_PKvS4_S6_RNS1_16__dyncast_resultE
                0x0000beb6       0x7c /home/wenda/opt/gcc-arm-none-eabi/bin/../lib/gcc/arm-none-eabi/5.4.1/../../../../arm-none-eabi/lib/armv7e-m/fpu/libstdc++_nano.a(si_class_type_info.o)
                0x0000beb6                __cxxabiv1::__si_class_type_info::__do_dyncast(int, __cxxabiv1::__class_type_info::__sub_kind, __cxxabiv1::__class_type_info const*, void const*, __cxxabiv1::__class_type_info const*, void const*, __cxxabiv1::__class_type_info::__dyncast_result&) const
 .text._ZNK10__cxxabiv120__si_class_type_info20__do_find_public_srcEiPKvPKNS_17__class_type_infoES2_
                0x0000bf32       0x38 /home/wenda/opt/gcc-arm-none-eabi/bin/../lib/gcc/arm-none-eabi/5.4.1/../../../../arm-none-eabi/lib/armv7e-m/fpu/libstdc++_nano.a(si_class_type_info.o)
                0x0000bf32                __cxxabiv1::__si_class_type_info::__do_find_public_src(int, void const*, __cxxabiv1::__class_type_info const*, void const*) const
 .text._ZNK10__cxxabiv120__si_class_type_info11__do_upcastEPKNS_17__class_type_infoEPKvRNS1_15__upcast_resultE
                0x0000bf6a       0x2a /home/wenda/opt/gcc-arm-none-eabi/bin/../lib/gcc/arm-none-eabi/5.4.1/../../../../arm-none-eabi/lib/armv7e-m/fpu/libstdc++_nano.a(si_class_type_info.o)
                0x0000bf6a                __cxxabiv1::__si_class_type_info::__do_upcast(__cxxabiv1::__class_type_info const*, void const*, __cxxabiv1::__class_type_info::__upcast_result&) const
 .text._ZL12read_uleb128PKhPm
                0x0000bf94       0x22 /home/wenda/opt/gcc-arm-none-eabi/bin/../lib/gcc/arm-none-eabi/5.4.1/../../../../arm-none-eabi/lib/armv7e-m/fpu/libstdc++_nano.a(eh_personality.o)
 .text._ZL12read_sleb128PKhPl
                0x0000bfb6       0x30 /home/wenda/opt/gcc-arm-none-eabi/bin/../lib/gcc/arm-none-eabi/5.4.1/../../../../arm-none-eabi/lib/armv7e-m/fpu/libstdc++_nano.a(eh_personality.o)
 .text._ZL28read_encoded_value_with_basehjPKhPj
                0x0000bfe6       0x88 /home/wenda/opt/gcc-arm-none-eabi/bin/../lib/gcc/arm-none-eabi/5.4.1/../../../../arm-none-eabi/lib/armv7e-m/fpu/libstdc++_nano.a(eh_personality.o)
 .text._ZL21base_of_encoded_valuehP15_Unwind_Context
                0x0000c06e       0x48 /home/wenda/opt/gcc-arm-none-eabi/bin/../lib/gcc/arm-none-eabi/5.4.1/../../../../arm-none-eabi/lib/armv7e-m/fpu/libstdc++_nano.a(eh_personality.o)
 .text._ZL18read_encoded_valueP15_Unwind_ContexthPKhPj
                0x0000c0b6       0x20 /home/wenda/opt/gcc-arm-none-eabi/bin/../lib/gcc/arm-none-eabi/5.4.1/../../../../arm-none-eabi/lib/armv7e-m/fpu/libstdc++_nano.a(eh_personality.o)
 .text._ZL17parse_lsda_headerP15_Unwind_ContextPKhP16lsda_header_info
                0x0000c0d6       0x60 /home/wenda/opt/gcc-arm-none-eabi/bin/../lib/gcc/arm-none-eabi/5.4.1/../../../../arm-none-eabi/lib/armv7e-m/fpu/libstdc++_nano.a(eh_personality.o)
 .text._Unwind_GetGR
                0x0000c136       0x18 /home/wenda/opt/gcc-arm-none-eabi/bin/../lib/gcc/arm-none-eabi/5.4.1/../../../../arm-none-eabi/lib/armv7e-m/fpu/libstdc++_nano.a(eh_personality.o)
 *fill*         0x0000c14e        0x2 
 .text.__gxx_personality_v0
                0x0000c150      0x378 /home/wenda/opt/gcc-arm-none-eabi/bin/../lib/gcc/arm-none-eabi/5.4.1/../../../../arm-none-eabi/lib/armv7e-m/fpu/libstdc++_nano.a(eh_personality.o)
                0x0000c150                __gxx_personality_v0
 .text._ZN10__cxxabiv111__terminateEPFvvE
                0x0000c4c8        0x8 /home/wenda/opt/gcc-arm-none-eabi/bin/../lib/gcc/arm-none-eabi/5.4.1/../../../../arm-none-eabi/lib/armv7e-m/fpu/libstdc++_nano.a(eh_terminate.o)
                0x0000c4c8                __cxxabiv1::__terminate(void (*)())
 .text._ZSt13get_terminatev
                0x0000c4d0       0x10 /home/wenda/opt/gcc-arm-none-eabi/bin/../lib/gcc/arm-none-eabi/5.4.1/../../../../arm-none-eabi/lib/armv7e-m/fpu/libstdc++_nano.a(eh_terminate.o)
                0x0000c4d0                std::get_terminate()
 .text._ZSt9terminatev
                0x0000c4e0        0xa /home/wenda/opt/gcc-arm-none-eabi/bin/../lib/gcc/arm-none-eabi/5.4.1/../../../../arm-none-eabi/lib/armv7e-m/fpu/libstdc++_nano.a(eh_terminate.o)
                0x0000c4e0                std::terminate()
 .text._ZN10__cxxabiv112__unexpectedEPFvvE
                0x0000c4ea        0x8 /home/wenda/opt/gcc-arm-none-eabi/bin/../lib/gcc/arm-none-eabi/5.4.1/../../../../arm-none-eabi/lib/armv7e-m/fpu/libstdc++_nano.a(eh_terminate.o)
                0x0000c4ea                __cxxabiv1::__unexpected(void (*)())
 *fill*         0x0000c4f2        0x2 
 .text._ZSt14get_unexpectedv
                0x0000c4f4       0x10 /home/wenda/opt/gcc-arm-none-eabi/bin/../lib/gcc/arm-none-eabi/5.4.1/../../../../arm-none-eabi/lib/armv7e-m/fpu/libstdc++_nano.a(eh_terminate.o)
                0x0000c4f4                std::get_unexpected()
 .text._ZSt10unexpectedv
                0x0000c504        0xa /home/wenda/opt/gcc-arm-none-eabi/bin/../lib/gcc/arm-none-eabi/5.4.1/../../../../arm-none-eabi/lib/armv7e-m/fpu/libstdc++_nano.a(eh_terminate.o)
                0x0000c504                std::unexpected()
 .text._ZNSt9type_infoD2Ev
                0x0000c50e        0x2 /home/wenda/opt/gcc-arm-none-eabi/bin/../lib/gcc/arm-none-eabi/5.4.1/../../../../arm-none-eabi/lib/armv7e-m/fpu/libstdc++_nano.a(tinfo.o)
                0x0000c50e                std::type_info::~type_info()
                0x0000c50e                std::type_info::~type_info()
 .text._ZNKSt9type_info15__is_function_pEv
                0x0000c510        0x4 /home/wenda/opt/gcc-arm-none-eabi/bin/../lib/gcc/arm-none-eabi/5.4.1/../../../../arm-none-eabi/lib/armv7e-m/fpu/libstdc++_nano.a(tinfo.o)
                0x0000c510                std::type_info::__is_function_p() const
                0x0000c510                std::type_info::__is_pointer_p() const
 .text._ZNKSt9type_infoeqERKS_
                0x0000c514       0x2c /home/wenda/opt/gcc-arm-none-eabi/bin/../lib/gcc/arm-none-eabi/5.4.1/../../../../arm-none-eabi/lib/armv7e-m/fpu/libstdc++_nano.a(tinfo.o)
                0x0000c514                std::type_info::operator==(std::type_info const&) const
 .text.__cxa_end_cleanup
                0x0000c540        0xc /home/wenda/opt/gcc-arm-none-eabi/bin/../lib/gcc/arm-none-eabi/5.4.1/../../../../arm-none-eabi/lib/armv7e-m/fpu/libstdc++_nano.a(eh_arm.o)
                0x0000c540                __cxa_end_cleanup
 .text._ZN10__cxxabiv1L24__is_gxx_exception_classEPc
                0x0000c54c       0x3a /home/wenda/opt/gcc-arm-none-eabi/bin/../lib/gcc/arm-none-eabi/5.4.1/../../../../arm-none-eabi/lib/armv7e-m/fpu/libstdc++_nano.a(eh_arm.o)
 *fill*         0x0000c586        0x2 
 .text.__cxa_type_match
                0x0000c588       0xbc /home/wenda/opt/gcc-arm-none-eabi/bin/../lib/gcc/arm-none-eabi/5.4.1/../../../../arm-none-eabi/lib/armv7e-m/fpu/libstdc++_nano.a(eh_arm.o)
                0x0000c588                __cxa_type_match
 .text.__cxa_begin_cleanup
                0x0000c644       0x3a /home/wenda/opt/gcc-arm-none-eabi/bin/../lib/gcc/arm-none-eabi/5.4.1/../../../../arm-none-eabi/lib/armv7e-m/fpu/libstdc++_nano.a(eh_arm.o)
                0x0000c644                __cxa_begin_cleanup
 .text.__gnu_end_cleanup
                0x0000c67e       0x32 /home/wenda/opt/gcc-arm-none-eabi/bin/../lib/gcc/arm-none-eabi/5.4.1/../../../../arm-none-eabi/lib/armv7e-m/fpu/libstdc++_nano.a(eh_arm.o)
                0x0000c67e                __gnu_end_cleanup
 .text._ZNK10__cxxabiv117__class_type_info11__do_upcastEPKS0_PPv
                0x0000c6b0       0x34 /home/wenda/opt/gcc-arm-none-eabi/bin/../lib/gcc/arm-none-eabi/5.4.1/../../../../arm-none-eabi/lib/armv7e-m/fpu/libstdc++_nano.a(class_type_info.o)
                0x0000c6b0                __cxxabiv1::__class_type_info::__do_upcast(__cxxabiv1::__class_type_info const*, void**) const
 .text._ZNK10__cxxabiv117__class_type_info20__do_find_public_srcEiPKvPKS0_S2_
                0x0000c6e4        0xc /home/wenda/opt/gcc-arm-none-eabi/bin/../lib/gcc/arm-none-eabi/5.4.1/../../../../arm-none-eabi/lib/armv7e-m/fpu/libstdc++_nano.a(class_type_info.o)
                0x0000c6e4                __cxxabiv1::__class_type_info::__do_find_public_src(int, void const*, __cxxabiv1::__class_type_info const*, void const*) const
 .text._ZN10__cxxabiv117__class_type_infoD2Ev
                0x0000c6f0       0x14 /home/wenda/opt/gcc-arm-none-eabi/bin/../lib/gcc/arm-none-eabi/5.4.1/../../../../arm-none-eabi/lib/armv7e-m/fpu/libstdc++_nano.a(class_type_info.o)
                0x0000c6f0                __cxxabiv1::__class_type_info::~__class_type_info()
                0x0000c6f0                __cxxabiv1::__class_type_info::~__class_type_info()
 .text._ZN10__cxxabiv117__class_type_infoD0Ev
                0x0000c704       0x12 /home/wenda/opt/gcc-arm-none-eabi/bin/../lib/gcc/arm-none-eabi/5.4.1/../../../../arm-none-eabi/lib/armv7e-m/fpu/libstdc++_nano.a(class_type_info.o)
                0x0000c704                __cxxabiv1::__class_type_info::~__class_type_info()
 .text._ZNK10__cxxabiv117__class_type_info11__do_upcastEPKS0_PKvRNS0_15__upcast_resultE
                0x0000c716       0x18 /home/wenda/opt/gcc-arm-none-eabi/bin/../lib/gcc/arm-none-eabi/5.4.1/../../../../arm-none-eabi/lib/armv7e-m/fpu/libstdc++_nano.a(class_type_info.o)
                0x0000c716                __cxxabiv1::__class_type_info::__do_upcast(__cxxabiv1::__class_type_info const*, void const*, __cxxabiv1::__class_type_info::__upcast_result&) const
 .text._ZNK10__cxxabiv117__class_type_info12__do_dyncastEiNS0_10__sub_kindEPKS0_PKvS3_S5_RNS0_16__dyncast_resultE
                0x0000c72e       0x38 /home/wenda/opt/gcc-arm-none-eabi/bin/../lib/gcc/arm-none-eabi/5.4.1/../../../../arm-none-eabi/lib/armv7e-m/fpu/libstdc++_nano.a(class_type_info.o)
                0x0000c72e                __cxxabiv1::__class_type_info::__do_dyncast(int, __cxxabiv1::__class_type_info::__sub_kind, __cxxabiv1::__class_type_info const*, void const*, __cxxabiv1::__class_type_info const*, void const*, __cxxabiv1::__class_type_info::__dyncast_result&) const
 .text._ZNK10__cxxabiv117__class_type_info10__do_catchEPKSt9type_infoPPvj
                0x0000c766       0x2a /home/wenda/opt/gcc-arm-none-eabi/bin/../lib/gcc/arm-none-eabi/5.4.1/../../../../arm-none-eabi/lib/armv7e-m/fpu/libstdc++_nano.a(class_type_info.o)
                0x0000c766                __cxxabiv1::__class_type_info::__do_catch(std::type_info const*, void**, unsigned int) const
 .text._ZN10__cxxabiv1L24__is_gxx_exception_classEPc
                0x0000c790       0x3a /home/wenda/opt/gcc-arm-none-eabi/bin/../lib/gcc/arm-none-eabi/5.4.1/../../../../arm-none-eabi/lib/armv7e-m/fpu/libstdc++_nano.a(eh_call.o)
 .text.__cxa_call_terminate
                0x0000c7ca       0x1e /home/wenda/opt/gcc-arm-none-eabi/bin/../lib/gcc/arm-none-eabi/5.4.1/../../../../arm-none-eabi/lib/armv7e-m/fpu/libstdc++_nano.a(eh_call.o)
                0x0000c7ca                __cxa_call_terminate
 .text.__cxa_call_unexpected
                0x0000c7e8       0x28 /home/wenda/opt/gcc-arm-none-eabi/bin/../lib/gcc/arm-none-eabi/5.4.1/../../../../arm-none-eabi/lib/armv7e-m/fpu/libstdc++_nano.a(eh_call.o)
                0x0000c7e8                __cxa_call_unexpected
 .text._ZN10__cxxabiv1L24__is_gxx_exception_classEPc
                0x0000c810       0x3a /home/wenda/opt/gcc-arm-none-eabi/bin/../lib/gcc/arm-none-eabi/5.4.1/../../../../arm-none-eabi/lib/armv7e-m/fpu/libstdc++_nano.a(eh_catch.o)
 .text.__cxa_begin_catch
                0x0000c84a       0x54 /home/wenda/opt/gcc-arm-none-eabi/bin/../lib/gcc/arm-none-eabi/5.4.1/../../../../arm-none-eabi/lib/armv7e-m/fpu/libstdc++_nano.a(eh_catch.o)
                0x0000c84a                __cxa_begin_catch
 *fill*         0x0000c89e        0x2 
 .text.__cxa_get_globals
                0x0000c8a0        0x8 /home/wenda/opt/gcc-arm-none-eabi/bin/../lib/gcc/arm-none-eabi/5.4.1/../../../../arm-none-eabi/lib/armv7e-m/fpu/libstdc++_nano.a(eh_globals.o)
                0x0000c8a0                __cxa_get_globals
 .text.floor    0x0000c8a8      0x120 /home/wenda/opt/gcc-arm-none-eabi/bin/../lib/gcc/arm-none-eabi/5.4.1/../../../../arm-none-eabi/lib/armv7e-m/fpu/libm.a(lib_a-s_floor.o)
                0x0000c8a8                floor
 .text.frexp    0x0000c9c8       0x6c /home/wenda/opt/gcc-arm-none-eabi/bin/../lib/gcc/arm-none-eabi/5.4.1/../../../../arm-none-eabi/lib/armv7e-m/fpu/libm.a(lib_a-s_frexp.o)
                0x0000c9c8                frexp
 .text.round    0x0000ca34       0xb0 /home/wenda/opt/gcc-arm-none-eabi/bin/../lib/gcc/arm-none-eabi/5.4.1/../../../../arm-none-eabi/lib/armv7e-m/fpu/libm.a(lib_a-s_round.o)
                0x0000ca34                round
 *fill*         0x0000cae4        0x4 
 .text.exp      0x0000cae8      0x108 /home/wenda/opt/gcc-arm-none-eabi/bin/../lib/gcc/arm-none-eabi/5.4.1/../../../../arm-none-eabi/lib/armv7e-m/fpu/libm.a(lib_a-w_exp.o)
                0x0000cae8                exp
 .text.expf     0x0000cbf0      0x104 /home/wenda/opt/gcc-arm-none-eabi/bin/../lib/gcc/arm-none-eabi/5.4.1/../../../../arm-none-eabi/lib/armv7e-m/fpu/libm.a(lib_a-wf_exp.o)
                0x0000cbf0                expf
 .text.logf     0x0000ccf4       0xf8 /home/wenda/opt/gcc-arm-none-eabi/bin/../lib/gcc/arm-none-eabi/5.4.1/../../../../arm-none-eabi/lib/armv7e-m/fpu/libm.a(lib_a-wf_log.o)
                0x0000ccf4                logf
 *fill*         0x0000cdec        0x4 
 .text.__ieee754_exp
                0x0000cdf0      0x324 /home/wenda/opt/gcc-arm-none-eabi/bin/../lib/gcc/arm-none-eabi/5.4.1/../../../../arm-none-eabi/lib/armv7e-m/fpu/libm.a(lib_a-e_exp.o)
                0x0000cdf0                __ieee754_exp
 .text.__ieee754_expf
                0x0000d114      0x1b0 /home/wenda/opt/gcc-arm-none-eabi/bin/../lib/gcc/arm-none-eabi/5.4.1/../../../../arm-none-eabi/lib/armv7e-m/fpu/libm.a(lib_a-ef_exp.o)
                0x0000d114                __ieee754_expf
 .text.__ieee754_logf
                0x0000d2c4      0x218 /home/wenda/opt/gcc-arm-none-eabi/bin/../lib/gcc/arm-none-eabi/5.4.1/../../../../arm-none-eabi/lib/armv7e-m/fpu/libm.a(lib_a-ef_log.o)
                0x0000d2c4                __ieee754_logf
 .text.finite   0x0000d4dc       0x10 /home/wenda/opt/gcc-arm-none-eabi/bin/../lib/gcc/arm-none-eabi/5.4.1/../../../../arm-none-eabi/lib/armv7e-m/fpu/libm.a(lib_a-s_finite.o)
                0x0000d4dc                finite
 .text.matherr  0x0000d4ec        0x4 /home/wenda/opt/gcc-arm-none-eabi/bin/../lib/gcc/arm-none-eabi/5.4.1/../../../../arm-none-eabi/lib/armv7e-m/fpu/libm.a(lib_a-s_matherr.o)
                0x0000d4ec                matherr
 .text.nan      0x0000d4f0       0x10 /home/wenda/opt/gcc-arm-none-eabi/bin/../lib/gcc/arm-none-eabi/5.4.1/../../../../arm-none-eabi/lib/armv7e-m/fpu/libm.a(lib_a-s_nan.o)
                0x0000d4f0                nan
 .text.finitef  0x0000d500       0x14 /home/wenda/opt/gcc-arm-none-eabi/bin/../lib/gcc/arm-none-eabi/5.4.1/../../../../arm-none-eabi/lib/armv7e-m/fpu/libm.a(lib_a-sf_finite.o)
                0x0000d500                finitef
 .text          0x0000d514       0x18 /home/wenda/opt/gcc-arm-none-eabi/bin/../lib/gcc/arm-none-eabi/5.4.1/armv7e-m/fpu/libgcc.a(_ashldi3.o)
                0x0000d514                __ashldi3
                0x0000d514                __aeabi_llsl
 .text          0x0000d52c      0x370 /home/wenda/opt/gcc-arm-none-eabi/bin/../lib/gcc/arm-none-eabi/5.4.1/armv7e-m/fpu/libgcc.a(_arm_addsubdf3.o)
                0x0000d52c                __aeabi_drsub
                0x0000d534                __aeabi_dsub
                0x0000d534                __subdf3
                0x0000d538                __adddf3
                0x0000d538                __aeabi_dadd
                0x0000d7b0                __aeabi_ui2d
                0x0000d7b0                __floatunsidf
                0x0000d7d0                __floatsidf
                0x0000d7d0                __aeabi_i2d
                0x0000d7f4                __extendsfdf2
                0x0000d7f4                __aeabi_f2d
                0x0000d830                __aeabi_ul2d
                0x0000d830                __floatundidf
                0x0000d840                __floatdidf
                0x0000d840                __aeabi_l2d
 .text          0x0000d89c      0x424 /home/wenda/opt/gcc-arm-none-eabi/bin/../lib/gcc/arm-none-eabi/5.4.1/armv7e-m/fpu/libgcc.a(_arm_muldivdf3.o)
                0x0000d89c                __aeabi_dmul
                0x0000d89c                __muldf3
                0x0000daf0                __aeabi_ddiv
                0x0000daf0                __divdf3
 .text          0x0000dcc0      0x110 /home/wenda/opt/gcc-arm-none-eabi/bin/../lib/gcc/arm-none-eabi/5.4.1/armv7e-m/fpu/libgcc.a(_arm_cmpdf2.o)
                0x0000dcc0                __gtdf2
                0x0000dcc0                __gedf2
                0x0000dcc8                __ltdf2
                0x0000dcc8                __ledf2
                0x0000dcd0                __cmpdf2
                0x0000dcd0                __eqdf2
                0x0000dcd0                __nedf2
                0x0000dd4c                __aeabi_cdrcmple
                0x0000dd5c                __aeabi_cdcmple
                0x0000dd5c                __aeabi_cdcmpeq
                0x0000dd6c                __aeabi_dcmpeq
                0x0000dd80                __aeabi_dcmplt
                0x0000dd94                __aeabi_dcmple
                0x0000dda8                __aeabi_dcmpge
                0x0000ddbc                __aeabi_dcmpgt
 .text          0x0000ddd0       0x50 /home/wenda/opt/gcc-arm-none-eabi/bin/../lib/gcc/arm-none-eabi/5.4.1/armv7e-m/fpu/libgcc.a(_arm_fixdfsi.o)
                0x0000ddd0                __fixdfsi
                0x0000ddd0                __aeabi_d2iz
 .text          0x0000de20       0xa0 /home/wenda/opt/gcc-arm-none-eabi/bin/../lib/gcc/arm-none-eabi/5.4.1/armv7e-m/fpu/libgcc.a(_arm_truncdfsf2.o)
                0x0000de20                __aeabi_d2f
                0x0000de20                __truncdfsf2
 .text          0x0000dec0       0x30 /home/wenda/opt/gcc-arm-none-eabi/bin/../lib/gcc/arm-none-eabi/5.4.1/armv7e-m/fpu/libgcc.a(_fixdfdi.o)
                0x0000dec0                __aeabi_d2lz
                0x0000dec0                __fixdfdi
 .text          0x0000def0       0x48 /home/wenda/opt/gcc-arm-none-eabi/bin/../lib/gcc/arm-none-eabi/5.4.1/armv7e-m/fpu/libgcc.a(_fixunsdfdi.o)
                0x0000def0                __aeabi_d2ulz
                0x0000def0                __fixunsdfdi
 .text          0x0000df38      0x9dc /home/wenda/opt/gcc-arm-none-eabi/bin/../lib/gcc/arm-none-eabi/5.4.1/armv7e-m/fpu/libgcc.a(unwind-arm.o)
                0x0000e1f4                _Unwind_GetCFA
                0x0000e1f8                __gnu_Unwind_RaiseException
                0x0000e258                __gnu_Unwind_ForcedUnwind
                0x0000e26c                __gnu_Unwind_Resume
                0x0000e2b0                __gnu_Unwind_Resume_or_Rethrow
                0x0000e2c0                _Unwind_Complete
                0x0000e2c4                _Unwind_DeleteException
                0x0000e2d0                _Unwind_VRS_Get
                0x0000e31c                _Unwind_VRS_Set
                0x0000e36c                __gnu_Unwind_Backtrace
                0x0000e6b8                __aeabi_unwind_cpp_pr0
                0x0000e6bc                __aeabi_unwind_cpp_pr1
                0x0000e6c0                __aeabi_unwind_cpp_pr2
                0x0000e6c4                _Unwind_VRS_Pop
 .text          0x0000e914      0x1ac /home/wenda/opt/gcc-arm-none-eabi/bin/../lib/gcc/arm-none-eabi/5.4.1/armv7e-m/fpu/libgcc.a(libunwind.o)
                0x0000e914                __restore_core_regs
                0x0000e914                restore_core_regs
                0x0000e92c                __gnu_Unwind_Restore_VFP
                0x0000e934                __gnu_Unwind_Save_VFP
                0x0000e93c                __gnu_Unwind_Restore_VFP_D
                0x0000e944                __gnu_Unwind_Save_VFP_D
                0x0000e94c                __gnu_Unwind_Restore_VFP_D_16_to_31
                0x0000e954                __gnu_Unwind_Save_VFP_D_16_to_31
                0x0000e95c                __gnu_Unwind_Restore_WMMXD
                0x0000e9a0                __gnu_Unwind_Save_WMMXD
                0x0000e9e4                __gnu_Unwind_Restore_WMMXC
                0x0000e9f8                __gnu_Unwind_Save_WMMXC
                0x0000ea0c                ___Unwind_RaiseException
                0x0000ea0c                _Unwind_RaiseException
                0x0000ea30                ___Unwind_Resume
                0x0000ea30                _Unwind_Resume
                0x0000ea54                _Unwind_Resume_or_Rethrow
                0x0000ea54                ___Unwind_Resume_or_Rethrow
                0x0000ea78                ___Unwind_ForcedUnwind
                0x0000ea78                _Unwind_ForcedUnwind
                0x0000ea9c                _Unwind_Backtrace
                0x0000ea9c                ___Unwind_Backtrace
 .text          0x0000eac0      0x354 /home/wenda/opt/gcc-arm-none-eabi/bin/../lib/gcc/arm-none-eabi/5.4.1/armv7e-m/fpu/libgcc.a(pr-support.o)
                0x0000eb18                __gnu_unwind_execute
                0x0000edbc                __gnu_unwind_frame
                0x0000ede4                _Unwind_GetRegionStart
                0x0000edf0                _Unwind_GetLanguageSpecificData
                0x0000ee04                _Unwind_GetTextRelBase
                0x0000ee0c                _Unwind_GetDataRelBase
 .text          0x0000ee14       0x40 /home/wenda/opt/gcc-arm-none-eabi/bin/../lib/gcc/arm-none-eabi/5.4.1/armv7e-m/fpu/libgcc.a(_arm_fixunsdfsi.o)
                0x0000ee14                __fixunsdfsi
                0x0000ee14                __aeabi_d2uiz
 .text.abort    0x0000ee54        0xe /home/wenda/opt/gcc-arm-none-eabi/bin/../lib/gcc/arm-none-eabi/5.4.1/../../../../arm-none-eabi/lib/armv7e-m/fpu/libc_nano.a(lib_a-abort.o)
                0x0000ee54                abort
 *fill*         0x0000ee62        0x2 
 .text.__errno  0x0000ee64        0xc /home/wenda/opt/gcc-arm-none-eabi/bin/../lib/gcc/arm-none-eabi/5.4.1/../../../../arm-none-eabi/lib/armv7e-m/fpu/libc_nano.a(lib_a-errno.o)
                0x0000ee64                __errno
 .text._fputs_r
                0x0000ee70       0x8c /home/wenda/opt/gcc-arm-none-eabi/bin/../lib/gcc/arm-none-eabi/5.4.1/../../../../arm-none-eabi/lib/armv7e-m/fpu/libc_nano.a(lib_a-fputs.o)
                0x0000ee70                _fputs_r
 .text.fputs    0x0000eefc       0x10 /home/wenda/opt/gcc-arm-none-eabi/bin/../lib/gcc/arm-none-eabi/5.4.1/../../../../arm-none-eabi/lib/armv7e-m/fpu/libc_nano.a(lib_a-fputs.o)
                0x0000eefc                fputs
 .text.__libc_init_array
                0x0000ef0c       0x4c /home/wenda/opt/gcc-arm-none-eabi/bin/../lib/gcc/arm-none-eabi/5.4.1/../../../../arm-none-eabi/lib/armv7e-m/fpu/libc_nano.a(lib_a-init.o)
                0x0000ef0c                __libc_init_array
 .text.malloc   0x0000ef58       0x10 /home/wenda/opt/gcc-arm-none-eabi/bin/../lib/gcc/arm-none-eabi/5.4.1/../../../../arm-none-eabi/lib/armv7e-m/fpu/libc_nano.a(lib_a-malloc.o)
                0x0000ef58                malloc
 .text.free     0x0000ef68       0x10 /home/wenda/opt/gcc-arm-none-eabi/bin/../lib/gcc/arm-none-eabi/5.4.1/../../../../arm-none-eabi/lib/armv7e-m/fpu/libc_nano.a(lib_a-malloc.o)
                0x0000ef68                free
 .text.memcpy   0x0000ef78       0x16 /home/wenda/opt/gcc-arm-none-eabi/bin/../lib/gcc/arm-none-eabi/5.4.1/../../../../arm-none-eabi/lib/armv7e-m/fpu/libc_nano.a(lib_a-memcpy-stub.o)
                0x0000ef78                memcpy
 .text.memset   0x0000ef8e       0x10 /home/wenda/opt/gcc-arm-none-eabi/bin/../lib/gcc/arm-none-eabi/5.4.1/../../../../arm-none-eabi/lib/armv7e-m/fpu/libc_nano.a(lib_a-memset.o)
                0x0000ef8e                memset
 *fill*         0x0000ef9e        0x2 
 .text._free_r  0x0000efa0       0x9c /home/wenda/opt/gcc-arm-none-eabi/bin/../lib/gcc/arm-none-eabi/5.4.1/../../../../arm-none-eabi/lib/armv7e-m/fpu/libc_nano.a(lib_a-nano-freer.o)
                0x0000efa0                _free_r
 .text._malloc_r
                0x0000f03c       0xbc /home/wenda/opt/gcc-arm-none-eabi/bin/../lib/gcc/arm-none-eabi/5.4.1/../../../../arm-none-eabi/lib/armv7e-m/fpu/libc_nano.a(lib_a-nano-mallocr.o)
                0x0000f03c                _malloc_r
 .text.printf   0x0000f0f8       0x30 /home/wenda/opt/gcc-arm-none-eabi/bin/../lib/gcc/arm-none-eabi/5.4.1/../../../../arm-none-eabi/lib/armv7e-m/fpu/libc_nano.a(lib_a-printf.o)
                0x0000f0f8                printf
                0x0000f0f8                iprintf
 .text._puts_r  0x0000f128       0xb4 /home/wenda/opt/gcc-arm-none-eabi/bin/../lib/gcc/arm-none-eabi/5.4.1/../../../../arm-none-eabi/lib/armv7e-m/fpu/libc_nano.a(lib_a-puts.o)
                0x0000f128                _puts_r
 .text.puts     0x0000f1dc       0x10 /home/wenda/opt/gcc-arm-none-eabi/bin/../lib/gcc/arm-none-eabi/5.4.1/../../../../arm-none-eabi/lib/armv7e-m/fpu/libc_nano.a(lib_a-puts.o)
                0x0000f1dc                puts
 .text.realloc  0x0000f1ec       0x10 /home/wenda/opt/gcc-arm-none-eabi/bin/../lib/gcc/arm-none-eabi/5.4.1/../../../../arm-none-eabi/lib/armv7e-m/fpu/libc_nano.a(lib_a-realloc.o)
                0x0000f1ec                realloc
 .text._sbrk_r  0x0000f1fc       0x20 /home/wenda/opt/gcc-arm-none-eabi/bin/../lib/gcc/arm-none-eabi/5.4.1/../../../../arm-none-eabi/lib/armv7e-m/fpu/libc_nano.a(lib_a-sbrkr.o)
                0x0000f1fc                _sbrk_r
 .text._raise_r
                0x0000f21c       0x54 /home/wenda/opt/gcc-arm-none-eabi/bin/../lib/gcc/arm-none-eabi/5.4.1/../../../../arm-none-eabi/lib/armv7e-m/fpu/libc_nano.a(lib_a-signal.o)
                0x0000f21c                _raise_r
 .text.raise    0x0000f270       0x10 /home/wenda/opt/gcc-arm-none-eabi/bin/../lib/gcc/arm-none-eabi/5.4.1/../../../../arm-none-eabi/lib/armv7e-m/fpu/libc_nano.a(lib_a-signal.o)
                0x0000f270                raise
 .text._kill_r  0x0000f280       0x24 /home/wenda/opt/gcc-arm-none-eabi/bin/../lib/gcc/arm-none-eabi/5.4.1/../../../../arm-none-eabi/lib/armv7e-m/fpu/libc_nano.a(lib_a-signalr.o)
                0x0000f280                _kill_r
 .text._getpid_r
                0x0000f2a4        0x4 /home/wenda/opt/gcc-arm-none-eabi/bin/../lib/gcc/arm-none-eabi/5.4.1/../../../../arm-none-eabi/lib/armv7e-m/fpu/libc_nano.a(lib_a-signalr.o)
                0x0000f2a4                _getpid_r
 .text          0x0000f2a8       0x14 /home/wenda/opt/gcc-arm-none-eabi/bin/../lib/gcc/arm-none-eabi/5.4.1/../../../../arm-none-eabi/lib/armv7e-m/fpu/libc_nano.a(lib_a-strcmp.o)
                0x0000f2a8                strcmp
 .text.__swbuf_r
                0x0000f2bc       0xa8 /home/wenda/opt/gcc-arm-none-eabi/bin/../lib/gcc/arm-none-eabi/5.4.1/../../../../arm-none-eabi/lib/armv7e-m/fpu/libc_nano.a(lib_a-wbuf.o)
                0x0000f2bc                __swbuf_r
 .text.__swsetup_r
                0x0000f364       0xdc /home/wenda/opt/gcc-arm-none-eabi/bin/../lib/gcc/arm-none-eabi/5.4.1/../../../../arm-none-eabi/lib/armv7e-m/fpu/libc_nano.a(lib_a-wsetup.o)
                0x0000f364                __swsetup_r
 .text.__sflush_r
                0x0000f440      0x110 /home/wenda/opt/gcc-arm-none-eabi/bin/../lib/gcc/arm-none-eabi/5.4.1/../../../../arm-none-eabi/lib/armv7e-m/fpu/libc_nano.a(lib_a-fflush.o)
                0x0000f440                __sflush_r
 .text._fflush_r
                0x0000f550       0x54 /home/wenda/opt/gcc-arm-none-eabi/bin/../lib/gcc/arm-none-eabi/5.4.1/../../../../arm-none-eabi/lib/armv7e-m/fpu/libc_nano.a(lib_a-fflush.o)
                0x0000f550                _fflush_r
 .text._cleanup_r
                0x0000f5a4        0xc /home/wenda/opt/gcc-arm-none-eabi/bin/../lib/gcc/arm-none-eabi/5.4.1/../../../../arm-none-eabi/lib/armv7e-m/fpu/libc_nano.a(lib_a-findfp.o)
                0x0000f5a4                _cleanup_r
 .text.std.isra.0
                0x0000f5b0       0x48 /home/wenda/opt/gcc-arm-none-eabi/bin/../lib/gcc/arm-none-eabi/5.4.1/../../../../arm-none-eabi/lib/armv7e-m/fpu/libc_nano.a(lib_a-findfp.o)
 .text.__sfmoreglue
                0x0000f5f8       0x2c /home/wenda/opt/gcc-arm-none-eabi/bin/../lib/gcc/arm-none-eabi/5.4.1/../../../../arm-none-eabi/lib/armv7e-m/fpu/libc_nano.a(lib_a-findfp.o)
                0x0000f5f8                __sfmoreglue
 .text.__sinit  0x0000f624       0x60 /home/wenda/opt/gcc-arm-none-eabi/bin/../lib/gcc/arm-none-eabi/5.4.1/../../../../arm-none-eabi/lib/armv7e-m/fpu/libc_nano.a(lib_a-findfp.o)
                0x0000f624                __sinit
 .text.__sfp    0x0000f684       0x78 /home/wenda/opt/gcc-arm-none-eabi/bin/../lib/gcc/arm-none-eabi/5.4.1/../../../../arm-none-eabi/lib/armv7e-m/fpu/libc_nano.a(lib_a-findfp.o)
                0x0000f684                __sfp
 .text._fwalk_reent
                0x0000f6fc       0x3c /home/wenda/opt/gcc-arm-none-eabi/bin/../lib/gcc/arm-none-eabi/5.4.1/../../../../arm-none-eabi/lib/armv7e-m/fpu/libc_nano.a(lib_a-fwalk.o)
                0x0000f6fc                _fwalk_reent
 .text.__swhatbuf_r
                0x0000f738       0x46 /home/wenda/opt/gcc-arm-none-eabi/bin/../lib/gcc/arm-none-eabi/5.4.1/../../../../arm-none-eabi/lib/armv7e-m/fpu/libc_nano.a(lib_a-makebuf.o)
                0x0000f738                __swhatbuf_r
 *fill*         0x0000f77e        0x2 
 .text.__smakebuf_r
                0x0000f780       0x78 /home/wenda/opt/gcc-arm-none-eabi/bin/../lib/gcc/arm-none-eabi/5.4.1/../../../../arm-none-eabi/lib/armv7e-m/fpu/libc_nano.a(lib_a-makebuf.o)
                0x0000f780                __smakebuf_r
 .text.__malloc_lock
                0x0000f7f8        0x2 /home/wenda/opt/gcc-arm-none-eabi/bin/../lib/gcc/arm-none-eabi/5.4.1/../../../../arm-none-eabi/lib/armv7e-m/fpu/libc_nano.a(lib_a-mlock.o)
                0x0000f7f8                __malloc_lock
 .text.__malloc_unlock
                0x0000f7fa        0x2 /home/wenda/opt/gcc-arm-none-eabi/bin/../lib/gcc/arm-none-eabi/5.4.1/../../../../arm-none-eabi/lib/armv7e-m/fpu/libc_nano.a(lib_a-mlock.o)
                0x0000f7fa                __malloc_unlock
 .text._realloc_r
                0x0000f7fc       0x4c /home/wenda/opt/gcc-arm-none-eabi/bin/../lib/gcc/arm-none-eabi/5.4.1/../../../../arm-none-eabi/lib/armv7e-m/fpu/libc_nano.a(lib_a-nano-reallocr.o)
                0x0000f7fc                _realloc_r
 .text.__sfputc_r
                0x0000f848       0x30 /home/wenda/opt/gcc-arm-none-eabi/bin/../lib/gcc/arm-none-eabi/5.4.1/../../../../arm-none-eabi/lib/armv7e-m/fpu/libc_nano.a(lib_a-nano-vfprintf.o)
 .text.__sfputs_r
                0x0000f878       0x24 /home/wenda/opt/gcc-arm-none-eabi/bin/../lib/gcc/arm-none-eabi/5.4.1/../../../../arm-none-eabi/lib/armv7e-m/fpu/libc_nano.a(lib_a-nano-vfprintf.o)
                0x0000f878                __sfputs_r
 .text._vfprintf_r
                0x0000f89c      0x238 /home/wenda/opt/gcc-arm-none-eabi/bin/../lib/gcc/arm-none-eabi/5.4.1/../../../../arm-none-eabi/lib/armv7e-m/fpu/libc_nano.a(lib_a-nano-vfprintf.o)
                0x0000f89c                _vfiprintf_r
                0x0000f89c                _vfprintf_r
 .text._printf_common
                0x0000fad4       0xec /home/wenda/opt/gcc-arm-none-eabi/bin/../lib/gcc/arm-none-eabi/5.4.1/../../../../arm-none-eabi/lib/armv7e-m/fpu/libc_nano.a(lib_a-nano-vfprintf_i.o)
                0x0000fad4                _printf_common
 .text._printf_i
                0x0000fbc0      0x24c /home/wenda/opt/gcc-arm-none-eabi/bin/../lib/gcc/arm-none-eabi/5.4.1/../../../../arm-none-eabi/lib/armv7e-m/fpu/libc_nano.a(lib_a-nano-vfprintf_i.o)
                0x0000fbc0                _printf_i
 .text.__sread  0x0000fe0c       0x22 /home/wenda/opt/gcc-arm-none-eabi/bin/../lib/gcc/arm-none-eabi/5.4.1/../../../../arm-none-eabi/lib/armv7e-m/fpu/libc_nano.a(lib_a-stdio.o)
                0x0000fe0c                __sread
 .text.__swrite
                0x0000fe2e       0x38 /home/wenda/opt/gcc-arm-none-eabi/bin/../lib/gcc/arm-none-eabi/5.4.1/../../../../arm-none-eabi/lib/armv7e-m/fpu/libc_nano.a(lib_a-stdio.o)
                0x0000fe2e                __swrite
 .text.__sseek  0x0000fe66       0x24 /home/wenda/opt/gcc-arm-none-eabi/bin/../lib/gcc/arm-none-eabi/5.4.1/../../../../arm-none-eabi/lib/armv7e-m/fpu/libc_nano.a(lib_a-stdio.o)
                0x0000fe66                __sseek
 .text.__sclose
                0x0000fe8a        0x8 /home/wenda/opt/gcc-arm-none-eabi/bin/../lib/gcc/arm-none-eabi/5.4.1/../../../../arm-none-eabi/lib/armv7e-m/fpu/libc_nano.a(lib_a-stdio.o)
                0x0000fe8a                __sclose
 *fill*         0x0000fe92        0x2 
 .text._write_r
                0x0000fe94       0x24 /home/wenda/opt/gcc-arm-none-eabi/bin/../lib/gcc/arm-none-eabi/5.4.1/../../../../arm-none-eabi/lib/armv7e-m/fpu/libc_nano.a(lib_a-writer.o)
                0x0000fe94                _write_r
 .text._close_r
                0x0000feb8       0x20 /home/wenda/opt/gcc-arm-none-eabi/bin/../lib/gcc/arm-none-eabi/5.4.1/../../../../arm-none-eabi/lib/armv7e-m/fpu/libc_nano.a(lib_a-closer.o)
                0x0000feb8                _close_r
 .text._fstat_r
                0x0000fed8       0x24 /home/wenda/opt/gcc-arm-none-eabi/bin/../lib/gcc/arm-none-eabi/5.4.1/../../../../arm-none-eabi/lib/armv7e-m/fpu/libc_nano.a(lib_a-fstatr.o)
                0x0000fed8                _fstat_r
 .text._isatty_r
                0x0000fefc       0x20 /home/wenda/opt/gcc-arm-none-eabi/bin/../lib/gcc/arm-none-eabi/5.4.1/../../../../arm-none-eabi/lib/armv7e-m/fpu/libc_nano.a(lib_a-isattyr.o)
                0x0000fefc                _isatty_r
 .text._lseek_r
                0x0000ff1c       0x24 /home/wenda/opt/gcc-arm-none-eabi/bin/../lib/gcc/arm-none-eabi/5.4.1/../../../../arm-none-eabi/lib/armv7e-m/fpu/libc_nano.a(lib_a-lseekr.o)
                0x0000ff1c                _lseek_r
 .text          0x0000ff40       0xa0 /home/wenda/opt/gcc-arm-none-eabi/bin/../lib/gcc/arm-none-eabi/5.4.1/../../../../arm-none-eabi/lib/armv7e-m/fpu/libc_nano.a(lib_a-memchr.o)
                0x0000ff40                memchr
 .text._malloc_usable_size_r
                0x0000ffe0       0x14 /home/wenda/opt/gcc-arm-none-eabi/bin/../lib/gcc/arm-none-eabi/5.4.1/../../../../arm-none-eabi/lib/armv7e-m/fpu/libc_nano.a(lib_a-nano-msizer.o)
                0x0000ffe0                _malloc_usable_size_r
 .text._read_r  0x0000fff4       0x24 /home/wenda/opt/gcc-arm-none-eabi/bin/../lib/gcc/arm-none-eabi/5.4.1/../../../../arm-none-eabi/lib/armv7e-m/fpu/libc_nano.a(lib_a-readr.o)
                0x0000fff4                _read_r
 .text._close   0x00010018       0x10 /home/wenda/opt/gcc-arm-none-eabi/bin/../lib/gcc/arm-none-eabi/5.4.1/../../../../arm-none-eabi/lib/armv7e-m/fpu/libnosys.a(close.o)
                0x00010018                _close
 .text._fstat   0x00010028       0x10 /home/wenda/opt/gcc-arm-none-eabi/bin/../lib/gcc/arm-none-eabi/5.4.1/../../../../arm-none-eabi/lib/armv7e-m/fpu/libnosys.a(fstat.o)
                0x00010028                _fstat
 .text._getpid  0x00010038       0x10 /home/wenda/opt/gcc-arm-none-eabi/bin/../lib/gcc/arm-none-eabi/5.4.1/../../../../arm-none-eabi/lib/armv7e-m/fpu/libnosys.a(getpid.o)
                0x00010038                _getpid
 .text._isatty  0x00010048       0x10 /home/wenda/opt/gcc-arm-none-eabi/bin/../lib/gcc/arm-none-eabi/5.4.1/../../../../arm-none-eabi/lib/armv7e-m/fpu/libnosys.a(isatty.o)
                0x00010048                _isatty
 .text._kill    0x00010058       0x10 /home/wenda/opt/gcc-arm-none-eabi/bin/../lib/gcc/arm-none-eabi/5.4.1/../../../../arm-none-eabi/lib/armv7e-m/fpu/libnosys.a(kill.o)
                0x00010058                _kill
 .text._lseek   0x00010068       0x10 /home/wenda/opt/gcc-arm-none-eabi/bin/../lib/gcc/arm-none-eabi/5.4.1/../../../../arm-none-eabi/lib/armv7e-m/fpu/libnosys.a(lseek.o)
                0x00010068                _lseek
 .text._read    0x00010078       0x10 /home/wenda/opt/gcc-arm-none-eabi/bin/../lib/gcc/arm-none-eabi/5.4.1/../../../../arm-none-eabi/lib/armv7e-m/fpu/libnosys.a(read.o)
                0x00010078                _read
 .text._sbrk    0x00010088       0x1c /home/wenda/opt/gcc-arm-none-eabi/bin/../lib/gcc/arm-none-eabi/5.4.1/../../../../arm-none-eabi/lib/armv7e-m/fpu/libnosys.a(sbrk.o)
                0x00010088                _sbrk
 .text._write   0x000100a4       0x10 /home/wenda/opt/gcc-arm-none-eabi/bin/../lib/gcc/arm-none-eabi/5.4.1/../../../../arm-none-eabi/lib/armv7e-m/fpu/libnosys.a(write.o)
                0x000100a4                _write
 .text._exit    0x000100b4        0x4 /home/wenda/opt/gcc-arm-none-eabi/bin/../lib/gcc/arm-none-eabi/5.4.1/../../../../arm-none-eabi/lib/armv7e-m/fpu/libnosys.a(_exit.o)
                0x000100b4                _exit
 *(.gnu.warning)
 *(.glue_7t)
 .glue_7t       0x000100b8        0x0 linker stubs
 *(.glue_7)
 .glue_7        0x000100b8        0x0 linker stubs
 *(.vfp11_veneer)
 .vfp11_veneer  0x000100b8        0x0 linker stubs
 *(.v4_bx)
 .v4_bx         0x000100b8        0x0 linker stubs

.fini           0x000100b8        0xc
 *(SORT(.fini))
 .fini          0x000100b8        0x4 /home/wenda/opt/gcc-arm-none-eabi/bin/../lib/gcc/arm-none-eabi/5.4.1/armv7e-m/fpu/crti.o
                0x000100b8                _fini
 .fini          0x000100bc        0x8 /home/wenda/opt/gcc-arm-none-eabi/bin/../lib/gcc/arm-none-eabi/5.4.1/armv7e-m/fpu/crtn.o
                [!provide]                PROVIDE (__etext, .)
                [!provide]                PROVIDE (_etext, .)
                [!provide]                PROVIDE (etext, .)

.rodata         0x000100c8     0x11a7
 *(.rodata .rodata.* .gnu.linkonce.r.*)
 .rodata._ZTSN6tflite13ErrorReporterE
                0x000100c8       0x19 tensorflow/lite/experimental/micro/micro_error_reporter.o
                0x000100c8                typeinfo name for tflite::ErrorReporter
 *fill*         0x000100e1        0x3 
 .rodata._ZTIN6tflite13ErrorReporterE
                0x000100e4        0x8 tensorflow/lite/experimental/micro/micro_error_reporter.o
                0x000100e4                typeinfo for tflite::ErrorReporter
 .rodata        0x000100ec       0x40 tensorflow/lite/experimental/micro/micro_error_reporter.o
                0x000100ec                typeinfo name for tflite::MicroErrorReporter
                0x0001010c                typeinfo for tflite::MicroErrorReporter
                0x00010118                vtable for tflite::MicroErrorReporter
 .rodata.str1.1
                0x0001012c        0x0 tensorflow/lite/experimental/micro/micro_error_reporter.o
                                  0x2 (size before relaxing)
 .rodata._ZTSN6tflite10OpResolverE
                0x0001012c       0x16 tensorflow/lite/experimental/micro/micro_mutable_op_resolver.o
                0x0001012c                typeinfo name for tflite::OpResolver
 *fill*         0x00010142        0x2 
 .rodata._ZTIN6tflite10OpResolverE
                0x00010144        0x8 tensorflow/lite/experimental/micro/micro_mutable_op_resolver.o
                0x00010144                typeinfo for tflite::OpResolver
 .rodata        0x0001014c       0x48 tensorflow/lite/experimental/micro/micro_mutable_op_resolver.o
                0x0001014c                typeinfo name for tflite::MicroMutableOpResolver
                0x00010170                typeinfo for tflite::MicroMutableOpResolver
                0x0001017c                vtable for tflite::MicroMutableOpResolver
 .rodata.str1.1
                0x00010194       0xc7 tensorflow/lite/experimental/micro/simple_tensor_allocator.o
 .rodata        0x0001025b        0xd tensorflow/lite/experimental/micro/debug_log_numbers.o
 .rodata.str1.1
                0x00010268        0xc tensorflow/lite/experimental/micro/debug_log_numbers.o
 .rodata._ZTSN6tflite20BuiltinDataAllocatorE
                0x00010274       0x20 tensorflow/lite/experimental/micro/micro_interpreter.o
                0x00010274                typeinfo name for tflite::BuiltinDataAllocator
 .rodata._ZTIN6tflite20BuiltinDataAllocatorE
                0x00010294        0x8 tensorflow/lite/experimental/micro/micro_interpreter.o
                0x00010294                typeinfo for tflite::BuiltinDataAllocator
 .rodata._ZZN6tflite24EnumNamesBuiltinOperatorEvE5names
                0x0001029c      0x1a4 tensorflow/lite/experimental/micro/micro_interpreter.o
                0x0001029c                tflite::EnumNamesBuiltinOperator()::names
 .rodata        0x00010440       0x51 tensorflow/lite/experimental/micro/micro_interpreter.o
 .rodata.str1.1
                0x00010491      0x5a6 tensorflow/lite/experimental/micro/micro_interpreter.o
                                0x5fb (size before relaxing)
 .rodata.str1.1
                0x00010a37       0x21 tensorflow/lite/experimental/micro/kernels/depthwise_conv.o
 .rodata.str1.1
                0x00010a58      0x146 tensorflow/lite/experimental/micro/kernels/softmax.o
                                0x148 (size before relaxing)
 .rodata._ZTSN6tflite3ops5micro14AllOpsResolverE
                0x00010b9e       0x24 tensorflow/lite/experimental/micro/kernels/all_ops_resolver.o
                0x00010b9e                typeinfo name for tflite::ops::micro::AllOpsResolver
 *fill*         0x00010bc2        0x2 
 .rodata._ZTIN6tflite3ops5micro14AllOpsResolverE
                0x00010bc4        0xc tensorflow/lite/experimental/micro/kernels/all_ops_resolver.o
                0x00010bc4                typeinfo for tflite::ops::micro::AllOpsResolver
 .rodata._ZTVN6tflite3ops5micro14AllOpsResolverE
                0x00010bd0       0x18 tensorflow/lite/experimental/micro/kernels/all_ops_resolver.o
                0x00010bd0                vtable for tflite::ops::micro::AllOpsResolver
 .rodata.str1.1
                0x00010be8       0x41 tensorflow/lite/experimental/micro/kernels/fully_connected.o
                                 0x62 (size before relaxing)
 *fill*         0x00010c29        0x3 
 .rodata        0x00010c2c       0x2c tensorflow/lite/c/c_api_internal.o
                0x00010c54                kTfLiteNullBufferHandle
 .rodata.str1.1
                0x00010c58       0x5c tensorflow/lite/c/c_api_internal.o
                                 0x68 (size before relaxing)
 .rodata._ZZN6tflite19EnumNamesTensorTypeEvE5names
                0x00010cb4       0x2c tensorflow/lite/core/api/flatbuffer_conversions.o
                0x00010cb4                tflite::EnumNamesTensorType()::names
 .rodata        0x00010ce0        0x5 tensorflow/lite/core/api/flatbuffer_conversions.o
 .rodata.str1.1
                0x00010ce5       0xe7 tensorflow/lite/core/api/flatbuffer_conversions.o
                                0x134 (size before relaxing)
 .rodata.str1.1
                0x00010dcc       0xf5 tensorflow/lite/core/api/op_resolver.o
                                0x532 (size before relaxing)
 .rodata.str1.1
                0x00010ec1       0xa5 tensorflow/lite/kernels/kernel_util.o
                                 0xbc (size before relaxing)
 .rodata.str1.1
                0x00010f66       0x58 machinelearning.o
                                 0x6a (size before relaxing)
 .rodata.str1.1
                0x00010fbe       0x92 main.o
 .rodata._ZTVN10__cxxabiv120__si_class_type_infoE
                0x00011050       0x2c /home/wenda/opt/gcc-arm-none-eabi/bin/../lib/gcc/arm-none-eabi/5.4.1/../../../../arm-none-eabi/lib/armv7e-m/fpu/libstdc++_nano.a(si_class_type_info.o)
                0x00011050                vtable for __cxxabiv1::__si_class_type_info
 .rodata._ZTIN10__cxxabiv120__si_class_type_infoE
                0x0001107c        0xc /home/wenda/opt/gcc-arm-none-eabi/bin/../lib/gcc/arm-none-eabi/5.4.1/../../../../arm-none-eabi/lib/armv7e-m/fpu/libstdc++_nano.a(si_class_type_info.o)
                0x0001107c                typeinfo for __cxxabiv1::__si_class_type_info
 .rodata._ZTSN10__cxxabiv120__si_class_type_infoE
                0x00011088       0x25 /home/wenda/opt/gcc-arm-none-eabi/bin/../lib/gcc/arm-none-eabi/5.4.1/../../../../arm-none-eabi/lib/armv7e-m/fpu/libstdc++_nano.a(si_class_type_info.o)
                0x00011088                typeinfo name for __cxxabiv1::__si_class_type_info
 *fill*         0x000110ad        0x3 
 .rodata._ZTISt9type_info
                0x000110b0        0x8 /home/wenda/opt/gcc-arm-none-eabi/bin/../lib/gcc/arm-none-eabi/5.4.1/../../../../arm-none-eabi/lib/armv7e-m/fpu/libstdc++_nano.a(tinfo.o)
                0x000110b0                typeinfo for std::type_info
 .rodata._ZTSSt9type_info
                0x000110b8        0xd /home/wenda/opt/gcc-arm-none-eabi/bin/../lib/gcc/arm-none-eabi/5.4.1/../../../../arm-none-eabi/lib/armv7e-m/fpu/libstdc++_nano.a(tinfo.o)
                0x000110b8                typeinfo name for std::type_info
 *fill*         0x000110c5        0x3 
 .rodata._ZTVN10__cxxabiv117__class_type_infoE
                0x000110c8       0x2c /home/wenda/opt/gcc-arm-none-eabi/bin/../lib/gcc/arm-none-eabi/5.4.1/../../../../arm-none-eabi/lib/armv7e-m/fpu/libstdc++_nano.a(class_type_info.o)
                0x000110c8                vtable for __cxxabiv1::__class_type_info
 .rodata._ZTIN10__cxxabiv117__class_type_infoE
                0x000110f4        0xc /home/wenda/opt/gcc-arm-none-eabi/bin/../lib/gcc/arm-none-eabi/5.4.1/../../../../arm-none-eabi/lib/armv7e-m/fpu/libstdc++_nano.a(class_type_info.o)
                0x000110f4                typeinfo for __cxxabiv1::__class_type_info
 .rodata._ZTSN10__cxxabiv117__class_type_infoE
                0x00011100       0x22 /home/wenda/opt/gcc-arm-none-eabi/bin/../lib/gcc/arm-none-eabi/5.4.1/../../../../arm-none-eabi/lib/armv7e-m/fpu/libstdc++_nano.a(class_type_info.o)
                0x00011100                typeinfo name for __cxxabiv1::__class_type_info
 .rodata._ZTSN10__cxxabiv115__forced_unwindE
                0x00011122       0x20 /home/wenda/opt/gcc-arm-none-eabi/bin/../lib/gcc/arm-none-eabi/5.4.1/../../../../arm-none-eabi/lib/armv7e-m/fpu/libstdc++_nano.a(eh_exception.o)
                0x00011122                typeinfo name for __cxxabiv1::__forced_unwind
 *fill*         0x00011142        0x2 
 .rodata._ZTIN10__cxxabiv115__forced_unwindE
                0x00011144        0x8 /home/wenda/opt/gcc-arm-none-eabi/bin/../lib/gcc/arm-none-eabi/5.4.1/../../../../arm-none-eabi/lib/armv7e-m/fpu/libstdc++_nano.a(eh_exception.o)
                0x00011144                typeinfo for __cxxabiv1::__forced_unwind
 .rodata._ZTSN10__cxxabiv119__foreign_exceptionE
                0x0001114c       0x24 /home/wenda/opt/gcc-arm-none-eabi/bin/../lib/gcc/arm-none-eabi/5.4.1/../../../../arm-none-eabi/lib/armv7e-m/fpu/libstdc++_nano.a(eh_exception.o)
                0x0001114c                typeinfo name for __cxxabiv1::__foreign_exception
 .rodata._ZTIN10__cxxabiv119__foreign_exceptionE
                0x00011170        0x8 /home/wenda/opt/gcc-arm-none-eabi/bin/../lib/gcc/arm-none-eabi/5.4.1/../../../../arm-none-eabi/lib/armv7e-m/fpu/libstdc++_nano.a(eh_exception.o)
                0x00011170                typeinfo for __cxxabiv1::__foreign_exception
 .rodata.str1.4
                0x00011178        0x4 /home/wenda/opt/gcc-arm-none-eabi/bin/../lib/gcc/arm-none-eabi/5.4.1/../../../../arm-none-eabi/lib/armv7e-m/fpu/libm.a(lib_a-w_exp.o)
 .rodata.str1.4
                0x0001117c        0x5 /home/wenda/opt/gcc-arm-none-eabi/bin/../lib/gcc/arm-none-eabi/5.4.1/../../../../arm-none-eabi/lib/armv7e-m/fpu/libm.a(lib_a-wf_exp.o)
 *fill*         0x00011181        0x3 
 .rodata.str1.4
                0x00011184        0x8 /home/wenda/opt/gcc-arm-none-eabi/bin/../lib/gcc/arm-none-eabi/5.4.1/../../../../arm-none-eabi/lib/armv7e-m/fpu/libm.a(lib_a-wf_log.o)
                                  0x9 (size before relaxing)
 *fill*         0x0001118c        0x4 
 .rodata.halF   0x00011190       0x10 /home/wenda/opt/gcc-arm-none-eabi/bin/../lib/gcc/arm-none-eabi/5.4.1/../../../../arm-none-eabi/lib/armv7e-m/fpu/libm.a(lib_a-e_exp.o)
 .rodata.ln2LO  0x000111a0       0x10 /home/wenda/opt/gcc-arm-none-eabi/bin/../lib/gcc/arm-none-eabi/5.4.1/../../../../arm-none-eabi/lib/armv7e-m/fpu/libm.a(lib_a-e_exp.o)
 .rodata.ln2HI  0x000111b0       0x10 /home/wenda/opt/gcc-arm-none-eabi/bin/../lib/gcc/arm-none-eabi/5.4.1/../../../../arm-none-eabi/lib/armv7e-m/fpu/libm.a(lib_a-e_exp.o)
 .rodata.halF   0x000111c0        0x8 /home/wenda/opt/gcc-arm-none-eabi/bin/../lib/gcc/arm-none-eabi/5.4.1/../../../../arm-none-eabi/lib/armv7e-m/fpu/libm.a(lib_a-ef_exp.o)
 .rodata.ln2LO  0x000111c8        0x8 /home/wenda/opt/gcc-arm-none-eabi/bin/../lib/gcc/arm-none-eabi/5.4.1/../../../../arm-none-eabi/lib/armv7e-m/fpu/libm.a(lib_a-ef_exp.o)
 .rodata.ln2HI  0x000111d0        0x8 /home/wenda/opt/gcc-arm-none-eabi/bin/../lib/gcc/arm-none-eabi/5.4.1/../../../../arm-none-eabi/lib/armv7e-m/fpu/libm.a(lib_a-ef_exp.o)
 .rodata._global_impure_ptr
                0x000111d8        0x4 /home/wenda/opt/gcc-arm-none-eabi/bin/../lib/gcc/arm-none-eabi/5.4.1/../../../../arm-none-eabi/lib/armv7e-m/fpu/libc_nano.a(lib_a-impure.o)
                0x000111d8                _global_impure_ptr
 .rodata.__sf_fake_stdin
                0x000111dc       0x20 /home/wenda/opt/gcc-arm-none-eabi/bin/../lib/gcc/arm-none-eabi/5.4.1/../../../../arm-none-eabi/lib/armv7e-m/fpu/libc_nano.a(lib_a-findfp.o)
                0x000111dc                __sf_fake_stdin
 .rodata.__sf_fake_stdout
                0x000111fc       0x20 /home/wenda/opt/gcc-arm-none-eabi/bin/../lib/gcc/arm-none-eabi/5.4.1/../../../../arm-none-eabi/lib/armv7e-m/fpu/libc_nano.a(lib_a-findfp.o)
                0x000111fc                __sf_fake_stdout
 .rodata.__sf_fake_stderr
                0x0001121c       0x20 /home/wenda/opt/gcc-arm-none-eabi/bin/../lib/gcc/arm-none-eabi/5.4.1/../../../../arm-none-eabi/lib/armv7e-m/fpu/libc_nano.a(lib_a-findfp.o)
                0x0001121c                __sf_fake_stderr
 .rodata.str1.1
                0x0001123c       0x11 /home/wenda/opt/gcc-arm-none-eabi/bin/../lib/gcc/arm-none-eabi/5.4.1/../../../../arm-none-eabi/lib/armv7e-m/fpu/libc_nano.a(lib_a-nano-vfprintf.o)
 .rodata.str1.1
                0x0001124d       0x22 /home/wenda/opt/gcc-arm-none-eabi/bin/../lib/gcc/arm-none-eabi/5.4.1/../../../../arm-none-eabi/lib/armv7e-m/fpu/libc_nano.a(lib_a-nano-vfprintf_i.o)

.rodata1
 *(.rodata1)

.ARM.extab      0x00011270      0x1ac
 *(.ARM.extab* .gnu.linkonce.armextab.*)
 .ARM.extab.text._ZN6tflite18MicroErrorReporterD0Ev
                0x00011270        0x0 tensorflow/lite/experimental/micro/micro_error_reporter.o
 .ARM.extab.text._ZN6tflite22MicroMutableOpResolverD0Ev
                0x00011270        0x0 tensorflow/lite/experimental/micro/micro_mutable_op_resolver.o
 .ARM.extab.text._ZNK11flatbuffers5Table22GetOptionalFieldOffsetEt
                0x00011270        0x0 tensorflow/lite/experimental/micro/simple_tensor_allocator.o
 .ARM.extab.text._ZNK6tflite6Tensor4typeEv
                0x00011270        0x0 tensorflow/lite/experimental/micro/simple_tensor_allocator.o
 .ARM.extab.text._ZN11flatbuffers5Table10GetPointerIPKN6tflite22QuantizationParametersEEET_t
                0x00011270        0x0 tensorflow/lite/experimental/micro/simple_tensor_allocator.o
 .ARM.extab     0x00011270        0xc tensorflow/lite/experimental/micro/micro_interpreter.o
 .ARM.extab.text._ZNK6tflite6Tensor11is_variableEv
                0x0001127c        0x0 tensorflow/lite/experimental/micro/micro_interpreter.o
 .ARM.extab.text._ZN11flatbuffers5Table10GetPointerIPKNS_6VectorINS_6OffsetIN6tflite6BufferEEEEEEET_t
                0x0001127c        0x0 tensorflow/lite/experimental/micro/micro_interpreter.o
 .ARM.extab     0x0001127c       0x40 tensorflow/lite/experimental/micro/kernels/depthwise_conv.o
 .ARM.extab.text._ZN6tflite12RuntimeShapeD2Ev
                0x000112bc       0x10 tensorflow/lite/experimental/micro/kernels/depthwise_conv.o
 .ARM.extab.text._ZNK6tflite12RuntimeShape4DimsEi
                0x000112cc        0x0 tensorflow/lite/experimental/micro/kernels/depthwise_conv.o
 .ARM.extab.text._ZN6tflite14GetTensorShapeEPK12TfLiteTensor
                0x000112cc        0x0 tensorflow/lite/experimental/micro/kernels/depthwise_conv.o
 .ARM.extab.text._ZN6tflite13reference_ops13DepthwiseConvERKNS_15DepthwiseParamsERKNS_12RuntimeShapeEPKfS6_S8_S6_S8_S6_Pf
                0x000112cc        0x0 tensorflow/lite/experimental/micro/kernels/depthwise_conv.o
 .ARM.extab.text._ZN6tflite13reference_ops13DepthwiseConvERKNS_15DepthwiseParamsERKNS_12RuntimeShapeEPKhS6_S8_S6_PKlS6_Ph
                0x000112cc        0x0 tensorflow/lite/experimental/micro/kernels/depthwise_conv.o
 .ARM.extab     0x000112cc       0x34 tensorflow/lite/experimental/micro/kernels/softmax.o
 .ARM.extab.text._ZN8gemmlowp33SaturatingRoundingDoublingHighMulIlEET_S1_S1_
                0x00011300        0x0 tensorflow/lite/experimental/micro/kernels/softmax.o
 .ARM.extab.text._ZN6tflite12RuntimeShape11ReplaceWithEiPKl
                0x00011300        0xc tensorflow/lite/experimental/micro/kernels/softmax.o
 .ARM.extab.text._ZN6tflite15FlatSizeSkipDimERKNS_12RuntimeShapeEi
                0x0001130c        0x0 tensorflow/lite/experimental/micro/kernels/softmax.o
 .ARM.extab.text._ZN6tflite13reference_ops7SoftmaxERKNS_13SoftmaxParamsERKNS_12RuntimeShapeEPKfS6_Pf
                0x0001130c        0x0 tensorflow/lite/experimental/micro/kernels/softmax.o
 .ARM.extab.text._ZN6tflite13reference_ops7SoftmaxEPKfiifPf
                0x0001130c        0x0 tensorflow/lite/experimental/micro/kernels/softmax.o
 .ARM.extab.text._ZN8gemmlowp19RoundingDivideByPOTIlEET_S1_i
                0x0001130c        0x0 tensorflow/lite/experimental/micro/kernels/softmax.o
 .ARM.extab.text._ZN8gemmlowpmlIlLi0ELi0EEENS_10FixedPointIT_XplT0_T1_EEENS1_IS2_XT0_EEENS1_IS2_XT1_EEE
                0x0001130c        0x0 tensorflow/lite/experimental/micro/kernels/softmax.o
 .ARM.extab.text._ZN8gemmlowp26RescaleConstantInitializerINS_10FixedPointIlLi0EEEEENT_13ScalarRawTypeEl
                0x0001130c        0x0 tensorflow/lite/experimental/micro/kernels/softmax.o
 .ARM.extab.text._ZN8gemmlowp55exp_on_interval_between_negative_one_quarter_and_0_exclIlEENS_10FixedPointIT_Li0EEES3_
                0x0001130c        0x0 tensorflow/lite/experimental/micro/kernels/softmax.o
 .ARM.extab.text._ZN8gemmlowp22exp_on_negative_valuesIlLi5EEENS_10FixedPointIT_Li0EEENS1_IS2_XT0_EEE
                0x0001130c        0x0 tensorflow/lite/experimental/micro/kernels/softmax.o
 .ARM.extab.text._ZN8gemmlowp32one_over_one_plus_x_for_x_in_0_1IlEENS_10FixedPointIT_Li0EEES3_
                0x0001130c        0x0 tensorflow/lite/experimental/micro/kernels/softmax.o
 .ARM.extab.text._ZN6tflite13reference_ops7SoftmaxERKNS_13SoftmaxParamsERKNS_12RuntimeShapeEPKhS6_Ph
                0x0001130c        0x0 tensorflow/lite/experimental/micro/kernels/softmax.o
 .ARM.extab.text._ZN6tflite3ops5micro14AllOpsResolverD0Ev
                0x0001130c        0x0 tensorflow/lite/experimental/micro/kernels/all_ops_resolver.o
 .ARM.extab     0x0001130c       0x5a tensorflow/lite/experimental/micro/kernels/fully_connected.o
 .ARM.extab.text._ZN6tflite29MultiplyByQuantizedMultiplierElli
                0x00011366        0x0 tensorflow/lite/experimental/micro/kernels/fully_connected.o
 *fill*         0x00011366        0x2 
 .ARM.extab     0x00011368       0x18 tensorflow/lite/core/api/error_reporter.o
 .ARM.extab     0x00011380        0xc tensorflow/lite/core/api/flatbuffer_conversions.o
 .ARM.extab.text._ZNK11flatbuffers5Table8GetFieldIhEET_tS2_
                0x0001138c        0x0 tensorflow/lite/core/api/flatbuffer_conversions.o
 .ARM.extab.text._ZNK6tflite8Operator20builtin_options_typeEv
                0x0001138c        0x0 tensorflow/lite/core/api/flatbuffer_conversions.o
 .ARM.extab.text._ZNK11flatbuffers5Table8GetFieldIaEET_tS2_
                0x0001138c        0x0 tensorflow/lite/core/api/flatbuffer_conversions.o
 .ARM.extab.text._ZNK11flatbuffers5Table8GetFieldIlEET_tS2_
                0x0001138c        0x0 tensorflow/lite/core/api/flatbuffer_conversions.o
 .ARM.extab.text._ZNK11flatbuffers5Table8GetFieldIfEET_tS2_
                0x0001138c        0x0 tensorflow/lite/core/api/flatbuffer_conversions.o
 .ARM.extab.text._ZN6tflite20BuiltinDataAllocator11AllocatePODI26TfLiteFullyConnectedParamsEEPT_v
                0x0001138c        0x0 tensorflow/lite/core/api/flatbuffer_conversions.o
 .ARM.extab.text._ZN6tflite20BuiltinDataAllocator11AllocatePODI19TfLiteSqueezeParamsEEPT_v
                0x0001138c        0x0 tensorflow/lite/core/api/flatbuffer_conversions.o
 .ARM.extab.text._ZN6tflite20BuiltinDataAllocator11AllocatePODI25TfLiteTransposeConvParamsEEPT_v
                0x0001138c        0x0 tensorflow/lite/core/api/flatbuffer_conversions.o
 .ARM.extab.text._ZN6tflite20BuiltinDataAllocator11AllocatePODI21TfLiteFakeQuantParamsEEPT_v
                0x0001138c        0x0 tensorflow/lite/core/api/flatbuffer_conversions.o
 .ARM.extab.text._ZN6tflite20BuiltinDataAllocator11AllocatePODI18TfLiteUnpackParamsEEPT_v
                0x0001138c        0x0 tensorflow/lite/core/api/flatbuffer_conversions.o
 .ARM.extab.text._ZN6tflite20BuiltinDataAllocator11AllocatePODI21TfLiteLeakyReluParamsEEPT_v
                0x0001138c        0x0 tensorflow/lite/core/api/flatbuffer_conversions.o
 .ARM.extab.text._ZN6tflite20BuiltinDataAllocator11AllocatePODI18TfLiteUniqueParamsEEPT_v
                0x0001138c        0x0 tensorflow/lite/core/api/flatbuffer_conversions.o
 .ARM.extab.text._ZN11flatbuffers5Table10GetPointerIPKNS_6VectorIlEEEET_t
                0x0001138c        0x0 tensorflow/lite/core/api/flatbuffer_conversions.o
 .ARM.extab.text._ZNK6tflite8Operator15builtin_optionsEv
                0x0001138c        0x0 tensorflow/lite/core/api/flatbuffer_conversions.o
 .ARM.extab     0x0001138c        0xc tensorflow/lite/kernels/kernel_util.o
 .ARM.extab     0x00011398       0x24 tensorflow/lite/kernels/internal/quantization_util.o
 .ARM.extab     0x000113bc       0x48 machinelearning.o
 .ARM.extab     0x00011404       0x18 /home/wenda/opt/gcc-arm-none-eabi/bin/../lib/gcc/arm-none-eabi/5.4.1/armv7e-m/fpu/libgcc.a(pr-support.o)
                0x0001141c                PROVIDE (__exidx_start, .)

.ARM.exidx      0x0001141c      0x290
 *(.ARM.exidx* .gnu.linkonce.armexidx.*)
 .ARM.exidx     0x0001141c        0x8 /home/wenda/opt/gcc-arm-none-eabi/bin/../lib/gcc/arm-none-eabi/5.4.1/../../../../arm-none-eabi/lib/armv7e-m/fpu/crt0.o
 .ARM.exidx.text._ZN6tflite18MicroErrorReporterD0Ev
                0x0001142c        0x8 tensorflow/lite/experimental/micro/micro_error_reporter.o
 .ARM.exidx     0x00011424        0x8 tensorflow/lite/experimental/micro/micro_error_reporter.o
 .ARM.exidx     0x00011434        0x0 tensorflow/lite/experimental/micro/micro_mutable_op_resolver.o
                                 0x20 (size before relaxing)
 .ARM.exidx.text._ZN6tflite22MicroMutableOpResolverD0Ev
                0x00011434        0x0 tensorflow/lite/experimental/micro/micro_mutable_op_resolver.o
                                  0x8 (size before relaxing)
 .ARM.exidx.text._ZNK11flatbuffers5Table22GetOptionalFieldOffsetEt
                0x0001144c        0x8 tensorflow/lite/experimental/micro/simple_tensor_allocator.o
 .ARM.exidx.text._ZNK6tflite6Tensor4typeEv
                0x00011454        0x0 tensorflow/lite/experimental/micro/simple_tensor_allocator.o
                                  0x8 (size before relaxing)
 .ARM.exidx     0x00011434       0x18 tensorflow/lite/experimental/micro/simple_tensor_allocator.o
 .ARM.exidx.text._ZN11flatbuffers5Table10GetPointerIPKN6tflite22QuantizationParametersEEET_t
                0x00011454        0x0 tensorflow/lite/experimental/micro/simple_tensor_allocator.o
                                  0x8 (size before relaxing)
 .ARM.exidx     0x00011454        0x0 tensorflow/lite/experimental/micro/debug_log.o
                                  0x8 (size before relaxing)
 .ARM.exidx     0x00011454       0x10 tensorflow/lite/experimental/micro/debug_log_numbers.o
                                 0x30 (size before relaxing)
 .ARM.exidx     0x00011464       0x28 tensorflow/lite/experimental/micro/micro_interpreter.o
                                 0x40 (size before relaxing)
 .ARM.exidx.text._ZNK6tflite6Tensor11is_variableEv
                0x0001148c        0x8 tensorflow/lite/experimental/micro/micro_interpreter.o
 .ARM.exidx.text._ZN11flatbuffers5Table10GetPointerIPKNS_6VectorINS_6OffsetIN6tflite6BufferEEEEEEET_t
                0x00011494        0x0 tensorflow/lite/experimental/micro/micro_interpreter.o
                                  0x8 (size before relaxing)
 .ARM.exidx     0x00011494       0x10 tensorflow/lite/experimental/micro/kernels/depthwise_conv.o
                                 0x28 (size before relaxing)
 .ARM.exidx.text._ZN6tflite12RuntimeShapeD2Ev
                0x000114a4        0x8 tensorflow/lite/experimental/micro/kernels/depthwise_conv.o
 .ARM.exidx.text._ZNK6tflite12RuntimeShape4DimsEi
                0x000114ac        0x8 tensorflow/lite/experimental/micro/kernels/depthwise_conv.o
 .ARM.exidx.text._ZN6tflite14GetTensorShapeEPK12TfLiteTensor
                0x000114b4        0x8 tensorflow/lite/experimental/micro/kernels/depthwise_conv.o
 .ARM.exidx.text._ZN6tflite13reference_ops13DepthwiseConvERKNS_15DepthwiseParamsERKNS_12RuntimeShapeEPKfS6_S8_S6_S8_S6_Pf
                0x000114bc        0x8 tensorflow/lite/experimental/micro/kernels/depthwise_conv.o
 .ARM.exidx.text._ZN6tflite13reference_ops13DepthwiseConvERKNS_15DepthwiseParamsERKNS_12RuntimeShapeEPKhS6_S8_S6_PKlS6_Ph
                0x000114c4        0x0 tensorflow/lite/experimental/micro/kernels/depthwise_conv.o
                                  0x8 (size before relaxing)
 .ARM.exidx     0x000114c4       0x18 tensorflow/lite/experimental/micro/kernels/softmax.o
                                 0x40 (size before relaxing)
 .ARM.exidx.text._ZN8gemmlowp33SaturatingRoundingDoublingHighMulIlEET_S1_S1_
                0x000114dc        0x8 tensorflow/lite/experimental/micro/kernels/softmax.o
 .ARM.exidx.text._ZN6tflite12RuntimeShape11ReplaceWithEiPKl
                0x000114e4        0x8 tensorflow/lite/experimental/micro/kernels/softmax.o
 .ARM.exidx.text._ZN6tflite15FlatSizeSkipDimERKNS_12RuntimeShapeEi
                0x000114ec        0x8 tensorflow/lite/experimental/micro/kernels/softmax.o
 .ARM.exidx.text._ZN6tflite13reference_ops7SoftmaxERKNS_13SoftmaxParamsERKNS_12RuntimeShapeEPKfS6_Pf
                0x000114f4        0x0 tensorflow/lite/experimental/micro/kernels/softmax.o
                                  0x8 (size before relaxing)
 .ARM.exidx.text._ZN6tflite13reference_ops7SoftmaxEPKfiifPf
                0x000114f4        0x0 tensorflow/lite/experimental/micro/kernels/softmax.o
                                  0x8 (size before relaxing)
 .ARM.exidx.text._ZN8gemmlowp19RoundingDivideByPOTIlEET_S1_i
                0x000114f4        0x0 tensorflow/lite/experimental/micro/kernels/softmax.o
                                  0x8 (size before relaxing)
 .ARM.exidx.text._ZN8gemmlowpmlIlLi0ELi0EEENS_10FixedPointIT_XplT0_T1_EEENS1_IS2_XT0_EEENS1_IS2_XT1_EEE
                0x000114f4        0x0 tensorflow/lite/experimental/micro/kernels/softmax.o
                                  0x8 (size before relaxing)
 .ARM.exidx.text._ZN8gemmlowp26RescaleConstantInitializerINS_10FixedPointIlLi0EEEEENT_13ScalarRawTypeEl
                0x000114f4        0x0 tensorflow/lite/experimental/micro/kernels/softmax.o
                                  0x8 (size before relaxing)
 .ARM.exidx.text._ZN8gemmlowp55exp_on_interval_between_negative_one_quarter_and_0_exclIlEENS_10FixedPointIT_Li0EEES3_
                0x000114f4        0x0 tensorflow/lite/experimental/micro/kernels/softmax.o
                                  0x8 (size before relaxing)
 .ARM.exidx.text._ZN8gemmlowp22exp_on_negative_valuesIlLi5EEENS_10FixedPointIT_Li0EEENS1_IS2_XT0_EEE
                0x000114f4        0x0 tensorflow/lite/experimental/micro/kernels/softmax.o
                                  0x8 (size before relaxing)
 .ARM.exidx.text._ZN8gemmlowp32one_over_one_plus_x_for_x_in_0_1IlEENS_10FixedPointIT_Li0EEES3_
                0x000114f4        0x0 tensorflow/lite/experimental/micro/kernels/softmax.o
                                  0x8 (size before relaxing)
 .ARM.exidx.text._ZN6tflite13reference_ops7SoftmaxERKNS_13SoftmaxParamsERKNS_12RuntimeShapeEPKhS6_Ph
                0x000114f4        0x0 tensorflow/lite/experimental/micro/kernels/softmax.o
                                  0x8 (size before relaxing)
 .ARM.exidx.text._ZN6tflite3ops5micro14AllOpsResolverD0Ev
                0x000114fc        0x8 tensorflow/lite/experimental/micro/kernels/all_ops_resolver.o
 .ARM.exidx     0x000114f4        0x8 tensorflow/lite/experimental/micro/kernels/all_ops_resolver.o
                                 0x20 (size before relaxing)
 .ARM.exidx     0x00011504       0x10 tensorflow/lite/experimental/micro/kernels/fully_connected.o
                                 0x28 (size before relaxing)
 .ARM.exidx.text._ZN6tflite29MultiplyByQuantizedMultiplierElli
                0x00011514        0x0 tensorflow/lite/experimental/micro/kernels/fully_connected.o
                                  0x8 (size before relaxing)
 .ARM.exidx     0x00011514       0x10 tensorflow/lite/core/api/error_reporter.o
 .ARM.exidx     0x00011524       0x18 tensorflow/lite/core/api/flatbuffer_conversions.o
                                 0x28 (size before relaxing)
 .ARM.exidx.text._ZNK11flatbuffers5Table8GetFieldIhEET_tS2_
                0x0001153c        0x8 tensorflow/lite/core/api/flatbuffer_conversions.o
 .ARM.exidx.text._ZNK6tflite8Operator20builtin_options_typeEv
                0x00011544        0x0 tensorflow/lite/core/api/flatbuffer_conversions.o
                                  0x8 (size before relaxing)
 .ARM.exidx.text._ZNK11flatbuffers5Table8GetFieldIaEET_tS2_
                0x00011544        0x0 tensorflow/lite/core/api/flatbuffer_conversions.o
                                  0x8 (size before relaxing)
 .ARM.exidx.text._ZNK11flatbuffers5Table8GetFieldIlEET_tS2_
                0x00011544        0x0 tensorflow/lite/core/api/flatbuffer_conversions.o
                                  0x8 (size before relaxing)
 .ARM.exidx.text._ZNK11flatbuffers5Table8GetFieldIfEET_tS2_
                0x00011544        0x0 tensorflow/lite/core/api/flatbuffer_conversions.o
                                  0x8 (size before relaxing)
 .ARM.exidx.text._ZN6tflite20BuiltinDataAllocator11AllocatePODI26TfLiteFullyConnectedParamsEEPT_v
                0x00011544        0x0 tensorflow/lite/core/api/flatbuffer_conversions.o
                                  0x8 (size before relaxing)
 .ARM.exidx.text._ZN6tflite20BuiltinDataAllocator11AllocatePODI19TfLiteSqueezeParamsEEPT_v
                0x00011544        0x0 tensorflow/lite/core/api/flatbuffer_conversions.o
                                  0x8 (size before relaxing)
 .ARM.exidx.text._ZN6tflite20BuiltinDataAllocator11AllocatePODI25TfLiteTransposeConvParamsEEPT_v
                0x00011544        0x0 tensorflow/lite/core/api/flatbuffer_conversions.o
                                  0x8 (size before relaxing)
 .ARM.exidx.text._ZN6tflite20BuiltinDataAllocator11AllocatePODI21TfLiteFakeQuantParamsEEPT_v
                0x00011544        0x0 tensorflow/lite/core/api/flatbuffer_conversions.o
                                  0x8 (size before relaxing)
 .ARM.exidx.text._ZN6tflite20BuiltinDataAllocator11AllocatePODI18TfLiteUnpackParamsEEPT_v
                0x00011544        0x0 tensorflow/lite/core/api/flatbuffer_conversions.o
                                  0x8 (size before relaxing)
 .ARM.exidx.text._ZN6tflite20BuiltinDataAllocator11AllocatePODI21TfLiteLeakyReluParamsEEPT_v
                0x00011544        0x0 tensorflow/lite/core/api/flatbuffer_conversions.o
                                  0x8 (size before relaxing)
 .ARM.exidx.text._ZN6tflite20BuiltinDataAllocator11AllocatePODI18TfLiteUniqueParamsEEPT_v
                0x00011544        0x0 tensorflow/lite/core/api/flatbuffer_conversions.o
                                  0x8 (size before relaxing)
 .ARM.exidx.text._ZN11flatbuffers5Table10GetPointerIPKNS_6VectorIlEEEET_t
                0x00011544        0x0 tensorflow/lite/core/api/flatbuffer_conversions.o
                                  0x8 (size before relaxing)
 .ARM.exidx.text._ZNK6tflite8Operator15builtin_optionsEv
                0x00011544        0x0 tensorflow/lite/core/api/flatbuffer_conversions.o
                                  0x8 (size before relaxing)
 .ARM.exidx     0x00011544        0x8 tensorflow/lite/core/api/op_resolver.o
 .ARM.exidx     0x0001154c       0x30 tensorflow/lite/kernels/kernel_util.o
                                 0x38 (size before relaxing)
 .ARM.exidx     0x0001157c       0x48 tensorflow/lite/kernels/internal/quantization_util.o
                                 0x68 (size before relaxing)
 .ARM.exidx     0x000115c4       0x38 machinelearning.o
                                 0x48 (size before relaxing)
 .ARM.exidx     0x000115fc       0x78 /home/wenda/opt/gcc-arm-none-eabi/bin/../lib/gcc/arm-none-eabi/5.4.1/armv7e-m/fpu/libgcc.a(unwind-arm.o)
                                 0xd8 (size before relaxing)
 .ARM.exidx     0x00011674       0x38 /home/wenda/opt/gcc-arm-none-eabi/bin/../lib/gcc/arm-none-eabi/5.4.1/armv7e-m/fpu/libgcc.a(pr-support.o)
                                 0x48 (size before relaxing)
                0x000116ac                PROVIDE (__exidx_end, .)

.eh_frame_hdr
 *(.eh_frame_hdr)
 *(.eh_frame_entry .eh_frame_entry.*)

.eh_frame       0x000116ac        0x4
 *(.eh_frame)
 .eh_frame      0x000116ac        0x0 /home/wenda/opt/gcc-arm-none-eabi/bin/../lib/gcc/arm-none-eabi/5.4.1/armv7e-m/fpu/crtbegin.o
 .eh_frame      0x000116ac        0x4 /home/wenda/opt/gcc-arm-none-eabi/bin/../lib/gcc/arm-none-eabi/5.4.1/armv7e-m/fpu/crtend.o
 *(.eh_frame.*)

.gcc_except_table
 *(.gcc_except_table .gcc_except_table.*)

.gnu_extab
 *(.gnu_extab*)

.exception_ranges
 *(.exception_ranges .exception_ranges*)
                0x000216b0                . = (ALIGN (0x10000) + (. & 0xffff))

.eh_frame
 *(.eh_frame)
 *(.eh_frame.*)

.gnu_extab
 *(.gnu_extab)

.gcc_except_table
 *(.gcc_except_table .gcc_except_table.*)

.exception_ranges
 *(.exception_ranges .exception_ranges*)

.tdata
 *(.tdata .tdata.* .gnu.linkonce.td.*)

.tbss
 *(.tbss .tbss.* .gnu.linkonce.tb.*)
 *(.tcommon)

.preinit_array  0x000216b0        0x0
                0x000216b0                PROVIDE (__preinit_array_start, .)
 *(.preinit_array)
                0x000216b0                PROVIDE (__preinit_array_end, .)

.init_array     0x000216b0        0x4
                0x000216b0                PROVIDE (__init_array_start, .)
 *(SORT(.init_array.*))
 *(.init_array)
 .init_array    0x000216b0        0x4 /home/wenda/opt/gcc-arm-none-eabi/bin/../lib/gcc/arm-none-eabi/5.4.1/armv7e-m/fpu/crtbegin.o
                0x000216b4                PROVIDE (__init_array_end, .)

.fini_array     0x000216b4        0x4
                [!provide]                PROVIDE (__fini_array_start, .)
 *(SORT(.fini_array.*))
 *(.fini_array)
 .fini_array    0x000216b4        0x4 /home/wenda/opt/gcc-arm-none-eabi/bin/../lib/gcc/arm-none-eabi/5.4.1/armv7e-m/fpu/crtbegin.o
                [!provide]                PROVIDE (__fini_array_end, .)

.ctors
 *crtbegin.o(.ctors)
 *crtbegin?.o(.ctors)
 *(EXCLUDE_FILE(*crtend?.o *crtend.o) .ctors)
 *(SORT(.ctors.*))
 *(.ctors)

.dtors
 *crtbegin.o(.dtors)
 *crtbegin?.o(.dtors)
 *(EXCLUDE_FILE(*crtend?.o *crtend.o) .dtors)
 *(SORT(.dtors.*))
 *(.dtors)

.jcr            0x000216b8        0x4
 *(.jcr)
 .jcr           0x000216b8        0x0 /home/wenda/opt/gcc-arm-none-eabi/bin/../lib/gcc/arm-none-eabi/5.4.1/armv7e-m/fpu/crtbegin.o
 .jcr           0x000216b8        0x4 /home/wenda/opt/gcc-arm-none-eabi/bin/../lib/gcc/arm-none-eabi/5.4.1/armv7e-m/fpu/crtend.o

.data.rel.ro
 *(.data.rel.ro.local* .gnu.linkonce.d.rel.ro.local.*)
 *(.data.rel.ro .data.rel.ro.* .gnu.linkonce.d.rel.ro.*)

.dynamic
 *(.dynamic)

.got            0x000216bc        0x0
 *(.got.plt)
 *(.igot.plt)
 .igot.plt      0x000216bc        0x0 /home/wenda/opt/gcc-arm-none-eabi/bin/../lib/gcc/arm-none-eabi/5.4.1/armv7e-m/fpu/crtbegin.o
 *(.got)
 *(.igot)

.data           0x000216bc    0x1dda8
                0x000216bc                __data_start = .
 *(.data .data.* .gnu.linkonce.d.*)
 .data          0x000216bc       0x20 tensorflow/lite/experimental/micro/kernels/depthwise_conv.o
 .data          0x000216dc       0x20 tensorflow/lite/experimental/micro/kernels/softmax.o
 .data          0x000216fc       0x20 tensorflow/lite/experimental/micro/kernels/fully_connected.o
 .data          0x0002171c     0x1684 tfmicro_models.o
                0x0002171c                nn_model_tflite_len
                0x00021720                nn_model_tflite
 .data          0x00022da0    0x1c654 tf_micro_model_backup.o
                0x00022da0                fc_tflite_len
                0x00022da4                fc_tflite
                0x00025064                tiny_mnist_model_len
                0x00025068                tiny_mnist_model
 .data._ZN10__cxxabiv119__terminate_handlerE
                0x0003f3f4        0x4 /home/wenda/opt/gcc-arm-none-eabi/bin/../lib/gcc/arm-none-eabi/5.4.1/../../../../arm-none-eabi/lib/armv7e-m/fpu/libstdc++_nano.a(eh_term_handler.o)
                0x0003f3f4                __cxxabiv1::__terminate_handler
 .data._ZN10__cxxabiv120__unexpected_handlerE
                0x0003f3f8        0x4 /home/wenda/opt/gcc-arm-none-eabi/bin/../lib/gcc/arm-none-eabi/5.4.1/../../../../arm-none-eabi/lib/armv7e-m/fpu/libstdc++_nano.a(eh_unex_handler.o)
                0x0003f3f8                __cxxabiv1::__unexpected_handler
 .data.__fdlib_version
                0x0003f3fc        0x1 /home/wenda/opt/gcc-arm-none-eabi/bin/../lib/gcc/arm-none-eabi/5.4.1/../../../../arm-none-eabi/lib/armv7e-m/fpu/libm.a(lib_a-s_lib_ver.o)
                0x0003f3fc                __fdlib_version
 *fill*         0x0003f3fd        0x3 
 .data.impure_data
                0x0003f400       0x60 /home/wenda/opt/gcc-arm-none-eabi/bin/../lib/gcc/arm-none-eabi/5.4.1/../../../../arm-none-eabi/lib/armv7e-m/fpu/libc_nano.a(lib_a-impure.o)
 .data._impure_ptr
                0x0003f460        0x4 /home/wenda/opt/gcc-arm-none-eabi/bin/../lib/gcc/arm-none-eabi/5.4.1/../../../../arm-none-eabi/lib/armv7e-m/fpu/libc_nano.a(lib_a-impure.o)
                0x0003f460                _impure_ptr

.data1
 *(.data1)
                0x0003f464                _edata = .
                [!provide]                PROVIDE (edata, .)
                0x0003f464                . = .
                0x0003f464                __bss_start = .
                0x0003f464                __bss_start__ = .

.bss            0x0003f464       0x38
 *(.dynbss)
 *(.bss .bss.* .gnu.linkonce.b.*)
 .bss           0x0003f464       0x1c /home/wenda/opt/gcc-arm-none-eabi/bin/../lib/gcc/arm-none-eabi/5.4.1/armv7e-m/fpu/crtbegin.o
 .bss._ZL10eh_globals
                0x0003f480        0xc /home/wenda/opt/gcc-arm-none-eabi/bin/../lib/gcc/arm-none-eabi/5.4.1/../../../../arm-none-eabi/lib/armv7e-m/fpu/libstdc++_nano.a(eh_globals.o)
 .bss.__malloc_sbrk_start
                0x0003f48c        0x4 /home/wenda/opt/gcc-arm-none-eabi/bin/../lib/gcc/arm-none-eabi/5.4.1/../../../../arm-none-eabi/lib/armv7e-m/fpu/libc_nano.a(lib_a-nano-mallocr.o)
                0x0003f48c                __malloc_sbrk_start
 .bss.__malloc_free_list
                0x0003f490        0x4 /home/wenda/opt/gcc-arm-none-eabi/bin/../lib/gcc/arm-none-eabi/5.4.1/../../../../arm-none-eabi/lib/armv7e-m/fpu/libc_nano.a(lib_a-nano-mallocr.o)
                0x0003f490                __malloc_free_list
 .bss.heap_end.4169
                0x0003f494        0x4 /home/wenda/opt/gcc-arm-none-eabi/bin/../lib/gcc/arm-none-eabi/5.4.1/../../../../arm-none-eabi/lib/armv7e-m/fpu/libnosys.a(sbrk.o)
 *(COMMON)
 COMMON         0x0003f498        0x4 /home/wenda/opt/gcc-arm-none-eabi/bin/../lib/gcc/arm-none-eabi/5.4.1/../../../../arm-none-eabi/lib/armv7e-m/fpu/libc_nano.a(lib_a-reent.o)
                0x0003f498                errno
                0x0003f49c                . = ALIGN ((. != 0x0)?0x4:0x1)
                0x0003f49c                _bss_end__ = .
                0x0003f49c                __bss_end__ = .
                0x0003f49c                . = ALIGN (0x4)
                0x0003f49c                . = SEGMENT_START ("ldata-segment", .)
                0x0003f49c                . = ALIGN (0x4)
                0x0003f49c                __end__ = .
                0x0003f49c                _end = .
                0x0003f49c                PROVIDE (end, .)

.stab           0x00000000       0xcc
 *(.stab)
 .stab          0x00000000       0x24 /home/wenda/opt/gcc-arm-none-eabi/bin/../lib/gcc/arm-none-eabi/5.4.1/../../../../arm-none-eabi/lib/armv7e-m/fpu/libnosys.a(close.o)
 .stab          0x00000024       0x18 /home/wenda/opt/gcc-arm-none-eabi/bin/../lib/gcc/arm-none-eabi/5.4.1/../../../../arm-none-eabi/lib/armv7e-m/fpu/libnosys.a(fstat.o)
                                 0x24 (size before relaxing)
 .stab          0x0000003c       0x18 /home/wenda/opt/gcc-arm-none-eabi/bin/../lib/gcc/arm-none-eabi/5.4.1/../../../../arm-none-eabi/lib/armv7e-m/fpu/libnosys.a(getpid.o)
                                 0x24 (size before relaxing)
 .stab          0x00000054       0x18 /home/wenda/opt/gcc-arm-none-eabi/bin/../lib/gcc/arm-none-eabi/5.4.1/../../../../arm-none-eabi/lib/armv7e-m/fpu/libnosys.a(isatty.o)
                                 0x24 (size before relaxing)
 .stab          0x0000006c       0x18 /home/wenda/opt/gcc-arm-none-eabi/bin/../lib/gcc/arm-none-eabi/5.4.1/../../../../arm-none-eabi/lib/armv7e-m/fpu/libnosys.a(kill.o)
                                 0x24 (size before relaxing)
 .stab          0x00000084       0x18 /home/wenda/opt/gcc-arm-none-eabi/bin/../lib/gcc/arm-none-eabi/5.4.1/../../../../arm-none-eabi/lib/armv7e-m/fpu/libnosys.a(lseek.o)
                                 0x24 (size before relaxing)
 .stab          0x0000009c       0x18 /home/wenda/opt/gcc-arm-none-eabi/bin/../lib/gcc/arm-none-eabi/5.4.1/../../../../arm-none-eabi/lib/armv7e-m/fpu/libnosys.a(read.o)
                                 0x24 (size before relaxing)
 .stab          0x000000b4       0x18 /home/wenda/opt/gcc-arm-none-eabi/bin/../lib/gcc/arm-none-eabi/5.4.1/../../../../arm-none-eabi/lib/armv7e-m/fpu/libnosys.a(write.o)
                                 0x24 (size before relaxing)

.stabstr        0x00000000      0x1b9
 *(.stabstr)
 .stabstr       0x00000000      0x1b9 /home/wenda/opt/gcc-arm-none-eabi/bin/../lib/gcc/arm-none-eabi/5.4.1/../../../../arm-none-eabi/lib/armv7e-m/fpu/libnosys.a(close.o)

.stab.excl
 *(.stab.excl)

.stab.exclstr
 *(.stab.exclstr)

.stab.index
 *(.stab.index)

.stab.indexstr
 *(.stab.indexstr)

.comment        0x00000000       0x6e
 *(.comment)
 .comment       0x00000000       0x6e tensorflow/lite/experimental/micro/micro_error_reporter.o
                                 0x6f (size before relaxing)
 .comment       0x0000006e       0x6f tensorflow/lite/experimental/micro/micro_mutable_op_resolver.o
 .comment       0x0000006e       0x6f tensorflow/lite/experimental/micro/simple_tensor_allocator.o
 .comment       0x0000006e       0x6f tensorflow/lite/experimental/micro/debug_log.o
 .comment       0x0000006e       0x6f tensorflow/lite/experimental/micro/debug_log_numbers.o
 .comment       0x0000006e       0x6f tensorflow/lite/experimental/micro/micro_interpreter.o
 .comment       0x0000006e       0x6f tensorflow/lite/experimental/micro/kernels/depthwise_conv.o
 .comment       0x0000006e       0x6f tensorflow/lite/experimental/micro/kernels/softmax.o
 .comment       0x0000006e       0x6f tensorflow/lite/experimental/micro/kernels/all_ops_resolver.o
 .comment       0x0000006e       0x6f tensorflow/lite/experimental/micro/kernels/fully_connected.o
 .comment       0x0000006e       0x6f tensorflow/lite/c/c_api_internal.o
 .comment       0x0000006e       0x6f tensorflow/lite/core/api/error_reporter.o
 .comment       0x0000006e       0x6f tensorflow/lite/core/api/flatbuffer_conversions.o
 .comment       0x0000006e       0x6f tensorflow/lite/core/api/op_resolver.o
 .comment       0x0000006e       0x6f tensorflow/lite/kernels/kernel_util.o
 .comment       0x0000006e       0x6f tensorflow/lite/kernels/internal/quantization_util.o
 .comment       0x0000006e       0x6f tensorflow/lite/experimental/micro/examples/micro_speech/model_settings.o
 .comment       0x0000006e       0x6f tensorflow/lite/experimental/micro/examples/micro_speech/audio_provider.o
 .comment       0x0000006e       0x6f tensorflow/lite/experimental/micro/examples/micro_speech/feature_provider.o
 .comment       0x0000006e       0x6f tensorflow/lite/experimental/micro/examples/micro_speech/preprocessor.o
 .comment       0x0000006e       0x6f tensorflow/lite/experimental/micro/examples/micro_speech/no_features_data.o
 .comment       0x0000006e       0x6f tensorflow/lite/experimental/micro/examples/micro_speech/yes_features_data.o
 .comment       0x0000006e       0x6f tensorflow/lite/experimental/micro/examples/micro_speech/tiny_conv_model_data.o
 .comment       0x0000006e       0x6f tensorflow/lite/experimental/micro/examples/micro_speech/recognize_commands.o
 .comment       0x0000006e       0x6f machinelearning.o
 .comment       0x0000006e       0x6f tfmicro_models.o
 .comment       0x0000006e       0x6f tf_micro_model_backup.o
 .comment       0x0000006e       0x6f main.o

.debug
 *(.debug)

.line
 *(.line)

.debug_srcinfo
 *(.debug_srcinfo)

.debug_sfnames
 *(.debug_sfnames)

.debug_aranges  0x00000000      0x4a0
 *(.debug_aranges)
 .debug_aranges
                0x00000000       0x28 tensorflow/lite/experimental/micro/micro_error_reporter.o
 .debug_aranges
                0x00000028       0x28 tensorflow/lite/experimental/micro/micro_mutable_op_resolver.o
 .debug_aranges
                0x00000050       0x38 tensorflow/lite/experimental/micro/simple_tensor_allocator.o
 .debug_aranges
                0x00000088       0x20 tensorflow/lite/experimental/micro/debug_log.o
 .debug_aranges
                0x000000a8       0x20 tensorflow/lite/experimental/micro/debug_log_numbers.o
 .debug_aranges
                0x000000c8       0x38 tensorflow/lite/experimental/micro/micro_interpreter.o
 .debug_aranges
                0x00000100       0x48 tensorflow/lite/experimental/micro/kernels/depthwise_conv.o
 .debug_aranges
                0x00000148       0x90 tensorflow/lite/experimental/micro/kernels/softmax.o
 .debug_aranges
                0x000001d8       0x28 tensorflow/lite/experimental/micro/kernels/all_ops_resolver.o
 .debug_aranges
                0x00000200       0x48 tensorflow/lite/experimental/micro/kernels/fully_connected.o
 .debug_aranges
                0x00000248       0x20 tensorflow/lite/core/api/error_reporter.o
 .debug_aranges
                0x00000268       0x98 tensorflow/lite/core/api/flatbuffer_conversions.o
 .debug_aranges
                0x00000300       0x28 tensorflow/lite/core/api/op_resolver.o
 .debug_aranges
                0x00000328       0x20 tensorflow/lite/kernels/kernel_util.o
 .debug_aranges
                0x00000348       0x20 tensorflow/lite/kernels/internal/quantization_util.o
 .debug_aranges
                0x00000368       0x18 tensorflow/lite/experimental/micro/examples/micro_speech/model_settings.o
 .debug_aranges
                0x00000380       0x20 tensorflow/lite/experimental/micro/examples/micro_speech/audio_provider.o
 .debug_aranges
                0x000003a0       0x20 tensorflow/lite/experimental/micro/examples/micro_speech/feature_provider.o
 .debug_aranges
                0x000003c0       0x20 tensorflow/lite/experimental/micro/examples/micro_speech/preprocessor.o
 .debug_aranges
                0x000003e0       0x18 tensorflow/lite/experimental/micro/examples/micro_speech/no_features_data.o
 .debug_aranges
                0x000003f8       0x18 tensorflow/lite/experimental/micro/examples/micro_speech/yes_features_data.o
 .debug_aranges
                0x00000410       0x18 tensorflow/lite/experimental/micro/examples/micro_speech/tiny_conv_model_data.o
 .debug_aranges
                0x00000428       0x28 tensorflow/lite/experimental/micro/examples/micro_speech/recognize_commands.o
 .debug_aranges
                0x00000450       0x20 machinelearning.o
 .debug_aranges
                0x00000470       0x18 tfmicro_models.o
 .debug_aranges
                0x00000488       0x18 tf_micro_model_backup.o

.debug_pubnames
 *(.debug_pubnames)

.debug_info     0x00000000    0xf4307
 *(.debug_info .gnu.linkonce.wi.*)
 .debug_info    0x00000000      0x7a9 tensorflow/lite/experimental/micro/micro_error_reporter.o
 .debug_info    0x000007a9    0x1cb96 tensorflow/lite/experimental/micro/micro_mutable_op_resolver.o
 .debug_info    0x0001d33f    0x1590e tensorflow/lite/experimental/micro/simple_tensor_allocator.o
 .debug_info    0x00032c4d      0xc52 tensorflow/lite/experimental/micro/debug_log.o
 .debug_info    0x0003389f      0xae6 tensorflow/lite/experimental/micro/debug_log_numbers.o
 .debug_info    0x00034385    0x2de96 tensorflow/lite/experimental/micro/micro_interpreter.o
 .debug_info    0x0006221b     0x4d65 tensorflow/lite/experimental/micro/kernels/depthwise_conv.o
 .debug_info    0x00066f80     0x7a36 tensorflow/lite/experimental/micro/kernels/softmax.o
 .debug_info    0x0006e9b6    0x1cbde tensorflow/lite/experimental/micro/kernels/all_ops_resolver.o
 .debug_info    0x0008b594     0x4b93 tensorflow/lite/experimental/micro/kernels/fully_connected.o
 .debug_info    0x00090127      0x285 tensorflow/lite/core/api/error_reporter.o
 .debug_info    0x000903ac    0x218b5 tensorflow/lite/core/api/flatbuffer_conversions.o
 .debug_info    0x000b1c61     0xdac7 tensorflow/lite/core/api/op_resolver.o
 .debug_info    0x000bf728     0x307d tensorflow/lite/kernels/kernel_util.o
 .debug_info    0x000c27a5     0x2b51 tensorflow/lite/kernels/internal/quantization_util.o
 .debug_info    0x000c52f6       0xeb tensorflow/lite/experimental/micro/examples/micro_speech/model_settings.o
 .debug_info    0x000c53e1      0x6b6 tensorflow/lite/experimental/micro/examples/micro_speech/audio_provider.o
 .debug_info    0x000c5a97      0x962 tensorflow/lite/experimental/micro/examples/micro_speech/feature_provider.o
 .debug_info    0x000c63f9      0xb5c tensorflow/lite/experimental/micro/examples/micro_speech/preprocessor.o
 .debug_info    0x000c6f55       0x86 tensorflow/lite/experimental/micro/examples/micro_speech/no_features_data.o
 .debug_info    0x000c6fdb       0x86 tensorflow/lite/experimental/micro/examples/micro_speech/yes_features_data.o
 .debug_info    0x000c7061       0x76 tensorflow/lite/experimental/micro/examples/micro_speech/tiny_conv_model_data.o
 .debug_info    0x000c70d7     0x1834 tensorflow/lite/experimental/micro/examples/micro_speech/recognize_commands.o
 .debug_info    0x000c890b    0x2b8f7 machinelearning.o
 .debug_info    0x000f4202       0x67 tfmicro_models.o
 .debug_info    0x000f4269       0x9e tf_micro_model_backup.o

.debug_abbrev   0x00000000     0x96e9
 *(.debug_abbrev)
 .debug_abbrev  0x00000000      0x2df tensorflow/lite/experimental/micro/micro_error_reporter.o
 .debug_abbrev  0x000002df      0xaff tensorflow/lite/experimental/micro/micro_mutable_op_resolver.o
 .debug_abbrev  0x00000dde      0xbed tensorflow/lite/experimental/micro/simple_tensor_allocator.o
 .debug_abbrev  0x000019cb      0x241 tensorflow/lite/experimental/micro/debug_log.o
 .debug_abbrev  0x00001c0c      0x240 tensorflow/lite/experimental/micro/debug_log_numbers.o
 .debug_abbrev  0x00001e4c      0xd96 tensorflow/lite/experimental/micro/micro_interpreter.o
 .debug_abbrev  0x00002be2      0x89c tensorflow/lite/experimental/micro/kernels/depthwise_conv.o
 .debug_abbrev  0x0000347e      0xa94 tensorflow/lite/experimental/micro/kernels/softmax.o
 .debug_abbrev  0x00003f12      0xaf8 tensorflow/lite/experimental/micro/kernels/all_ops_resolver.o
 .debug_abbrev  0x00004a0a      0x8c4 tensorflow/lite/experimental/micro/kernels/fully_connected.o
 .debug_abbrev  0x000052ce      0x1de tensorflow/lite/core/api/error_reporter.o
 .debug_abbrev  0x000054ac      0xc9c tensorflow/lite/core/api/flatbuffer_conversions.o
 .debug_abbrev  0x00006148      0xb42 tensorflow/lite/core/api/op_resolver.o
 .debug_abbrev  0x00006c8a      0x654 tensorflow/lite/kernels/kernel_util.o
 .debug_abbrev  0x000072de      0x74b tensorflow/lite/kernels/internal/quantization_util.o
 .debug_abbrev  0x00007a29       0x77 tensorflow/lite/experimental/micro/examples/micro_speech/model_settings.o
 .debug_abbrev  0x00007aa0      0x265 tensorflow/lite/experimental/micro/examples/micro_speech/audio_provider.o
 .debug_abbrev  0x00007d05      0x305 tensorflow/lite/experimental/micro/examples/micro_speech/feature_provider.o
 .debug_abbrev  0x0000800a      0x3a5 tensorflow/lite/experimental/micro/examples/micro_speech/preprocessor.o
 .debug_abbrev  0x000083af       0x50 tensorflow/lite/experimental/micro/examples/micro_speech/no_features_data.o
 .debug_abbrev  0x000083ff       0x50 tensorflow/lite/experimental/micro/examples/micro_speech/yes_features_data.o
 .debug_abbrev  0x0000844f       0x61 tensorflow/lite/experimental/micro/examples/micro_speech/tiny_conv_model_data.o
 .debug_abbrev  0x000084b0      0x509 tensorflow/lite/experimental/micro/examples/micro_speech/recognize_commands.o
 .debug_abbrev  0x000089b9      0xc89 machinelearning.o
 .debug_abbrev  0x00009642       0x4f tfmicro_models.o
 .debug_abbrev  0x00009691       0x58 tf_micro_model_backup.o

.debug_line     0x00000000     0x8a81
 *(.debug_line .debug_line.* .debug_line_end)
 .debug_line    0x00000000      0x33a tensorflow/lite/experimental/micro/micro_error_reporter.o
 .debug_line    0x0000033a      0x817 tensorflow/lite/experimental/micro/micro_mutable_op_resolver.o
 .debug_line    0x00000b51      0x91d tensorflow/lite/experimental/micro/simple_tensor_allocator.o
 .debug_line    0x0000146e      0x21d tensorflow/lite/experimental/micro/debug_log.o
 .debug_line    0x0000168b      0x2dc tensorflow/lite/experimental/micro/debug_log_numbers.o
 .debug_line    0x00001967      0xbae tensorflow/lite/experimental/micro/micro_interpreter.o
 .debug_line    0x00002515      0xa03 tensorflow/lite/experimental/micro/kernels/depthwise_conv.o
 .debug_line    0x00002f18      0xb61 tensorflow/lite/experimental/micro/kernels/softmax.o
 .debug_line    0x00003a79      0x7d5 tensorflow/lite/experimental/micro/kernels/all_ops_resolver.o
 .debug_line    0x0000424e      0x822 tensorflow/lite/experimental/micro/kernels/fully_connected.o
 .debug_line    0x00004a70      0x1b4 tensorflow/lite/core/api/error_reporter.o
 .debug_line    0x00004c24     0x1093 tensorflow/lite/core/api/flatbuffer_conversions.o
 .debug_line    0x00005cb7      0x766 tensorflow/lite/core/api/op_resolver.o
 .debug_line    0x0000641d      0x5c4 tensorflow/lite/kernels/kernel_util.o
 .debug_line    0x000069e1      0x5f3 tensorflow/lite/kernels/internal/quantization_util.o
 .debug_line    0x00006fd4       0xba tensorflow/lite/experimental/micro/examples/micro_speech/model_settings.o
 .debug_line    0x0000708e      0x333 tensorflow/lite/experimental/micro/examples/micro_speech/audio_provider.o
 .debug_line    0x000073c1      0x3c3 tensorflow/lite/experimental/micro/examples/micro_speech/feature_provider.o
 .debug_line    0x00007784      0x3a7 tensorflow/lite/experimental/micro/examples/micro_speech/preprocessor.o
 .debug_line    0x00007b2b       0x6d tensorflow/lite/experimental/micro/examples/micro_speech/no_features_data.o
 .debug_line    0x00007b98       0x6e tensorflow/lite/experimental/micro/examples/micro_speech/yes_features_data.o
 .debug_line    0x00007c06       0x71 tensorflow/lite/experimental/micro/examples/micro_speech/tiny_conv_model_data.o
 .debug_line    0x00007c77      0x45e tensorflow/lite/experimental/micro/examples/micro_speech/recognize_commands.o
 .debug_line    0x000080d5      0x941 machinelearning.o
 .debug_line    0x00008a16       0x32 tfmicro_models.o
 .debug_line    0x00008a48       0x39 tf_micro_model_backup.o

.debug_frame    0x00000000     0x2dc0
 *(.debug_frame)
 .debug_frame   0x00000000       0x44 tensorflow/lite/experimental/micro/micro_error_reporter.o
 .debug_frame   0x00000044       0xac tensorflow/lite/experimental/micro/micro_mutable_op_resolver.o
 .debug_frame   0x000000f0       0xb0 tensorflow/lite/experimental/micro/simple_tensor_allocator.o
 .debug_frame   0x000001a0       0x20 tensorflow/lite/experimental/micro/debug_log.o
 .debug_frame   0x000001c0       0xc4 tensorflow/lite/experimental/micro/debug_log_numbers.o
 .debug_frame   0x00000284      0x144 tensorflow/lite/experimental/micro/micro_interpreter.o
 .debug_frame   0x000003c8      0x130 tensorflow/lite/experimental/micro/kernels/depthwise_conv.o
 .debug_frame   0x000004f8      0x2b4 tensorflow/lite/experimental/micro/kernels/softmax.o
 .debug_frame   0x000007ac       0x6c tensorflow/lite/experimental/micro/kernels/all_ops_resolver.o
 .debug_frame   0x00000818      0x108 tensorflow/lite/experimental/micro/kernels/fully_connected.o
 .debug_frame   0x00000920       0x64 tensorflow/lite/core/api/error_reporter.o
 .debug_frame   0x00000984      0x1c0 tensorflow/lite/core/api/flatbuffer_conversions.o
 .debug_frame   0x00000b44       0x44 tensorflow/lite/core/api/op_resolver.o
 .debug_frame   0x00000b88       0xd8 tensorflow/lite/kernels/kernel_util.o
 .debug_frame   0x00000c60      0x230 tensorflow/lite/kernels/internal/quantization_util.o
 .debug_frame   0x00000e90       0x30 tensorflow/lite/experimental/micro/examples/micro_speech/audio_provider.o
 .debug_frame   0x00000ec0       0x58 tensorflow/lite/experimental/micro/examples/micro_speech/feature_provider.o
 .debug_frame   0x00000f18       0x9c tensorflow/lite/experimental/micro/examples/micro_speech/preprocessor.o
 .debug_frame   0x00000fb4       0x6c tensorflow/lite/experimental/micro/examples/micro_speech/recognize_commands.o
 .debug_frame   0x00001020      0x128 machinelearning.o
 .debug_frame   0x00001148       0x20 /home/wenda/opt/gcc-arm-none-eabi/bin/../lib/gcc/arm-none-eabi/5.4.1/../../../../arm-none-eabi/lib/armv7e-m/fpu/libstdc++_nano.a(del_op.o)
 .debug_frame   0x00001168       0xd4 /home/wenda/opt/gcc-arm-none-eabi/bin/../lib/gcc/arm-none-eabi/5.4.1/../../../../arm-none-eabi/lib/armv7e-m/fpu/libstdc++_nano.a(si_class_type_info.o)
 .debug_frame   0x0000123c      0x128 /home/wenda/opt/gcc-arm-none-eabi/bin/../lib/gcc/arm-none-eabi/5.4.1/../../../../arm-none-eabi/lib/armv7e-m/fpu/libstdc++_nano.a(eh_personality.o)
 .debug_frame   0x00001364       0xb0 /home/wenda/opt/gcc-arm-none-eabi/bin/../lib/gcc/arm-none-eabi/5.4.1/../../../../arm-none-eabi/lib/armv7e-m/fpu/libstdc++_nano.a(eh_terminate.o)
 .debug_frame   0x00001414       0x80 /home/wenda/opt/gcc-arm-none-eabi/bin/../lib/gcc/arm-none-eabi/5.4.1/../../../../arm-none-eabi/lib/armv7e-m/fpu/libstdc++_nano.a(tinfo.o)
 .debug_frame   0x00001494       0x74 /home/wenda/opt/gcc-arm-none-eabi/bin/../lib/gcc/arm-none-eabi/5.4.1/../../../../arm-none-eabi/lib/armv7e-m/fpu/libstdc++_nano.a(eh_arm.o)
 .debug_frame   0x00001508       0xd8 /home/wenda/opt/gcc-arm-none-eabi/bin/../lib/gcc/arm-none-eabi/5.4.1/../../../../arm-none-eabi/lib/armv7e-m/fpu/libstdc++_nano.a(class_type_info.o)
 .debug_frame   0x000015e0       0x54 /home/wenda/opt/gcc-arm-none-eabi/bin/../lib/gcc/arm-none-eabi/5.4.1/../../../../arm-none-eabi/lib/armv7e-m/fpu/libstdc++_nano.a(eh_call.o)
 .debug_frame   0x00001634       0x84 /home/wenda/opt/gcc-arm-none-eabi/bin/../lib/gcc/arm-none-eabi/5.4.1/../../../../arm-none-eabi/lib/armv7e-m/fpu/libstdc++_nano.a(eh_catch.o)
 .debug_frame   0x000016b8       0x30 /home/wenda/opt/gcc-arm-none-eabi/bin/../lib/gcc/arm-none-eabi/5.4.1/../../../../arm-none-eabi/lib/armv7e-m/fpu/libstdc++_nano.a(eh_globals.o)
 .debug_frame   0x000016e8       0xd0 /home/wenda/opt/gcc-arm-none-eabi/bin/../lib/gcc/arm-none-eabi/5.4.1/../../../../arm-none-eabi/lib/armv7e-m/fpu/libstdc++_nano.a(eh_exception.o)
 .debug_frame   0x000017b8       0x40 /home/wenda/opt/gcc-arm-none-eabi/bin/../lib/gcc/arm-none-eabi/5.4.1/../../../../arm-none-eabi/lib/armv7e-m/fpu/libstdc++_nano.a(pure.o)
 .debug_frame   0x000017f8       0x3c /home/wenda/opt/gcc-arm-none-eabi/bin/../lib/gcc/arm-none-eabi/5.4.1/../../../../arm-none-eabi/lib/armv7e-m/fpu/libm.a(lib_a-s_cos.o)
 .debug_frame   0x00001834       0x30 /home/wenda/opt/gcc-arm-none-eabi/bin/../lib/gcc/arm-none-eabi/5.4.1/../../../../arm-none-eabi/lib/armv7e-m/fpu/libm.a(lib_a-s_floor.o)
 .debug_frame   0x00001864       0x30 /home/wenda/opt/gcc-arm-none-eabi/bin/../lib/gcc/arm-none-eabi/5.4.1/../../../../arm-none-eabi/lib/armv7e-m/fpu/libm.a(lib_a-s_frexp.o)
 .debug_frame   0x00001894       0x30 /home/wenda/opt/gcc-arm-none-eabi/bin/../lib/gcc/arm-none-eabi/5.4.1/../../../../arm-none-eabi/lib/armv7e-m/fpu/libm.a(lib_a-s_round.o)
 .debug_frame   0x000018c4       0x3c /home/wenda/opt/gcc-arm-none-eabi/bin/../lib/gcc/arm-none-eabi/5.4.1/../../../../arm-none-eabi/lib/armv7e-m/fpu/libm.a(lib_a-s_sin.o)
 .debug_frame   0x00001900       0x38 /home/wenda/opt/gcc-arm-none-eabi/bin/../lib/gcc/arm-none-eabi/5.4.1/../../../../arm-none-eabi/lib/armv7e-m/fpu/libm.a(lib_a-sf_round.o)
 .debug_frame   0x00001938       0x64 /home/wenda/opt/gcc-arm-none-eabi/bin/../lib/gcc/arm-none-eabi/5.4.1/../../../../arm-none-eabi/lib/armv7e-m/fpu/libm.a(lib_a-w_exp.o)
 .debug_frame   0x0000199c       0x54 /home/wenda/opt/gcc-arm-none-eabi/bin/../lib/gcc/arm-none-eabi/5.4.1/../../../../arm-none-eabi/lib/armv7e-m/fpu/libm.a(lib_a-wf_exp.o)
 .debug_frame   0x000019f0       0x50 /home/wenda/opt/gcc-arm-none-eabi/bin/../lib/gcc/arm-none-eabi/5.4.1/../../../../arm-none-eabi/lib/armv7e-m/fpu/libm.a(lib_a-wf_log.o)
 .debug_frame   0x00001a40       0x54 /home/wenda/opt/gcc-arm-none-eabi/bin/../lib/gcc/arm-none-eabi/5.4.1/../../../../arm-none-eabi/lib/armv7e-m/fpu/libm.a(lib_a-e_exp.o)
 .debug_frame   0x00001a94       0x48 /home/wenda/opt/gcc-arm-none-eabi/bin/../lib/gcc/arm-none-eabi/5.4.1/../../../../arm-none-eabi/lib/armv7e-m/fpu/libm.a(lib_a-e_rem_pio2.o)
 .debug_frame   0x00001adc       0x20 /home/wenda/opt/gcc-arm-none-eabi/bin/../lib/gcc/arm-none-eabi/5.4.1/../../../../arm-none-eabi/lib/armv7e-m/fpu/libm.a(lib_a-ef_exp.o)
 .debug_frame   0x00001afc       0x4c /home/wenda/opt/gcc-arm-none-eabi/bin/../lib/gcc/arm-none-eabi/5.4.1/../../../../arm-none-eabi/lib/armv7e-m/fpu/libm.a(lib_a-ef_log.o)
 .debug_frame   0x00001b48       0x68 /home/wenda/opt/gcc-arm-none-eabi/bin/../lib/gcc/arm-none-eabi/5.4.1/../../../../arm-none-eabi/lib/armv7e-m/fpu/libm.a(lib_a-k_cos.o)
 .debug_frame   0x00001bb0       0x50 /home/wenda/opt/gcc-arm-none-eabi/bin/../lib/gcc/arm-none-eabi/5.4.1/../../../../arm-none-eabi/lib/armv7e-m/fpu/libm.a(lib_a-k_rem_pio2.o)
 .debug_frame   0x00001c00       0x68 /home/wenda/opt/gcc-arm-none-eabi/bin/../lib/gcc/arm-none-eabi/5.4.1/../../../../arm-none-eabi/lib/armv7e-m/fpu/libm.a(lib_a-k_sin.o)
 .debug_frame   0x00001c68       0x20 /home/wenda/opt/gcc-arm-none-eabi/bin/../lib/gcc/arm-none-eabi/5.4.1/../../../../arm-none-eabi/lib/armv7e-m/fpu/libm.a(lib_a-s_fabs.o)
 .debug_frame   0x00001c88       0x20 /home/wenda/opt/gcc-arm-none-eabi/bin/../lib/gcc/arm-none-eabi/5.4.1/../../../../arm-none-eabi/lib/armv7e-m/fpu/libm.a(lib_a-s_finite.o)
 .debug_frame   0x00001ca8       0x20 /home/wenda/opt/gcc-arm-none-eabi/bin/../lib/gcc/arm-none-eabi/5.4.1/../../../../arm-none-eabi/lib/armv7e-m/fpu/libm.a(lib_a-s_matherr.o)
 .debug_frame   0x00001cc8       0x20 /home/wenda/opt/gcc-arm-none-eabi/bin/../lib/gcc/arm-none-eabi/5.4.1/../../../../arm-none-eabi/lib/armv7e-m/fpu/libm.a(lib_a-s_nan.o)
 .debug_frame   0x00001ce8       0x2c /home/wenda/opt/gcc-arm-none-eabi/bin/../lib/gcc/arm-none-eabi/5.4.1/../../../../arm-none-eabi/lib/armv7e-m/fpu/libm.a(lib_a-s_scalbn.o)
 .debug_frame   0x00001d14       0x20 /home/wenda/opt/gcc-arm-none-eabi/bin/../lib/gcc/arm-none-eabi/5.4.1/../../../../arm-none-eabi/lib/armv7e-m/fpu/libm.a(lib_a-sf_finite.o)
 .debug_frame   0x00001d34       0x20 /home/wenda/opt/gcc-arm-none-eabi/bin/../lib/gcc/arm-none-eabi/5.4.1/../../../../arm-none-eabi/lib/armv7e-m/fpu/libm.a(lib_a-s_copysign.o)
 .debug_frame   0x00001d54       0x44 /home/wenda/opt/gcc-arm-none-eabi/bin/../lib/gcc/arm-none-eabi/5.4.1/armv7e-m/fpu/libgcc.a(_aeabi_ldivmod.o)
 .debug_frame   0x00001d98       0x38 /home/wenda/opt/gcc-arm-none-eabi/bin/../lib/gcc/arm-none-eabi/5.4.1/armv7e-m/fpu/libgcc.a(_fixdfdi.o)
 .debug_frame   0x00001dd0       0x2c /home/wenda/opt/gcc-arm-none-eabi/bin/../lib/gcc/arm-none-eabi/5.4.1/armv7e-m/fpu/libgcc.a(_fixunsdfdi.o)
 .debug_frame   0x00001dfc       0x34 /home/wenda/opt/gcc-arm-none-eabi/bin/../lib/gcc/arm-none-eabi/5.4.1/armv7e-m/fpu/libgcc.a(_udivmoddi4.o)
 .debug_frame   0x00001e30      0x2f4 /home/wenda/opt/gcc-arm-none-eabi/bin/../lib/gcc/arm-none-eabi/5.4.1/armv7e-m/fpu/libgcc.a(unwind-arm.o)
 .debug_frame   0x00002124      0x104 /home/wenda/opt/gcc-arm-none-eabi/bin/../lib/gcc/arm-none-eabi/5.4.1/armv7e-m/fpu/libgcc.a(pr-support.o)
 .debug_frame   0x00002228       0x28 /home/wenda/opt/gcc-arm-none-eabi/bin/../lib/gcc/arm-none-eabi/5.4.1/../../../../arm-none-eabi/lib/armv7e-m/fpu/libc_nano.a(lib_a-abort.o)
 .debug_frame   0x00002250       0x20 /home/wenda/opt/gcc-arm-none-eabi/bin/../lib/gcc/arm-none-eabi/5.4.1/../../../../arm-none-eabi/lib/armv7e-m/fpu/libc_nano.a(lib_a-errno.o)
 .debug_frame   0x00002270       0x28 /home/wenda/opt/gcc-arm-none-eabi/bin/../lib/gcc/arm-none-eabi/5.4.1/../../../../arm-none-eabi/lib/armv7e-m/fpu/libc_nano.a(lib_a-exit.o)
 .debug_frame   0x00002298       0x3c /home/wenda/opt/gcc-arm-none-eabi/bin/../lib/gcc/arm-none-eabi/5.4.1/../../../../arm-none-eabi/lib/armv7e-m/fpu/libc_nano.a(lib_a-fputs.o)
 .debug_frame   0x000022d4       0x2c /home/wenda/opt/gcc-arm-none-eabi/bin/../lib/gcc/arm-none-eabi/5.4.1/../../../../arm-none-eabi/lib/armv7e-m/fpu/libc_nano.a(lib_a-init.o)
 .debug_frame   0x00002300       0x30 /home/wenda/opt/gcc-arm-none-eabi/bin/../lib/gcc/arm-none-eabi/5.4.1/../../../../arm-none-eabi/lib/armv7e-m/fpu/libc_nano.a(lib_a-malloc.o)
 .debug_frame   0x00002330       0x28 /home/wenda/opt/gcc-arm-none-eabi/bin/../lib/gcc/arm-none-eabi/5.4.1/../../../../arm-none-eabi/lib/armv7e-m/fpu/libc_nano.a(lib_a-memcpy-stub.o)
 .debug_frame   0x00002358       0x20 /home/wenda/opt/gcc-arm-none-eabi/bin/../lib/gcc/arm-none-eabi/5.4.1/../../../../arm-none-eabi/lib/armv7e-m/fpu/libc_nano.a(lib_a-memset.o)
 .debug_frame   0x00002378       0x38 /home/wenda/opt/gcc-arm-none-eabi/bin/../lib/gcc/arm-none-eabi/5.4.1/../../../../arm-none-eabi/lib/armv7e-m/fpu/libc_nano.a(lib_a-nano-freer.o)
 .debug_frame   0x000023b0       0x2c /home/wenda/opt/gcc-arm-none-eabi/bin/../lib/gcc/arm-none-eabi/5.4.1/../../../../arm-none-eabi/lib/armv7e-m/fpu/libc_nano.a(lib_a-nano-mallocr.o)
 .debug_frame   0x000023dc       0x74 /home/wenda/opt/gcc-arm-none-eabi/bin/../lib/gcc/arm-none-eabi/5.4.1/../../../../arm-none-eabi/lib/armv7e-m/fpu/libc_nano.a(lib_a-printf.o)
 .debug_frame   0x00002450       0x3c /home/wenda/opt/gcc-arm-none-eabi/bin/../lib/gcc/arm-none-eabi/5.4.1/../../../../arm-none-eabi/lib/armv7e-m/fpu/libc_nano.a(lib_a-puts.o)
 .debug_frame   0x0000248c       0x20 /home/wenda/opt/gcc-arm-none-eabi/bin/../lib/gcc/arm-none-eabi/5.4.1/../../../../arm-none-eabi/lib/armv7e-m/fpu/libc_nano.a(lib_a-realloc.o)
 .debug_frame   0x000024ac       0x2c /home/wenda/opt/gcc-arm-none-eabi/bin/../lib/gcc/arm-none-eabi/5.4.1/../../../../arm-none-eabi/lib/armv7e-m/fpu/libc_nano.a(lib_a-sbrkr.o)
 .debug_frame   0x000024d8       0xcc /home/wenda/opt/gcc-arm-none-eabi/bin/../lib/gcc/arm-none-eabi/5.4.1/../../../../arm-none-eabi/lib/armv7e-m/fpu/libc_nano.a(lib_a-signal.o)
 .debug_frame   0x000025a4       0x3c /home/wenda/opt/gcc-arm-none-eabi/bin/../lib/gcc/arm-none-eabi/5.4.1/../../../../arm-none-eabi/lib/armv7e-m/fpu/libc_nano.a(lib_a-signalr.o)
 .debug_frame   0x000025e0       0x20 /home/wenda/opt/gcc-arm-none-eabi/bin/../lib/gcc/arm-none-eabi/5.4.1/../../../../arm-none-eabi/lib/armv7e-m/fpu/libc_nano.a(lib_a-strcmp.o)
 .debug_frame   0x00002600       0x40 /home/wenda/opt/gcc-arm-none-eabi/bin/../lib/gcc/arm-none-eabi/5.4.1/../../../../arm-none-eabi/lib/armv7e-m/fpu/libc_nano.a(lib_a-wbuf.o)
 .debug_frame   0x00002640       0x2c /home/wenda/opt/gcc-arm-none-eabi/bin/../lib/gcc/arm-none-eabi/5.4.1/../../../../arm-none-eabi/lib/armv7e-m/fpu/libc_nano.a(lib_a-wsetup.o)
 .debug_frame   0x0000266c       0x68 /home/wenda/opt/gcc-arm-none-eabi/bin/../lib/gcc/arm-none-eabi/5.4.1/../../../../arm-none-eabi/lib/armv7e-m/fpu/libc_nano.a(lib_a-fflush.o)
 .debug_frame   0x000026d4      0x11c /home/wenda/opt/gcc-arm-none-eabi/bin/../lib/gcc/arm-none-eabi/5.4.1/../../../../arm-none-eabi/lib/armv7e-m/fpu/libc_nano.a(lib_a-findfp.o)
 .debug_frame   0x000027f0       0x54 /home/wenda/opt/gcc-arm-none-eabi/bin/../lib/gcc/arm-none-eabi/5.4.1/../../../../arm-none-eabi/lib/armv7e-m/fpu/libc_nano.a(lib_a-fwalk.o)
 .debug_frame   0x00002844       0x54 /home/wenda/opt/gcc-arm-none-eabi/bin/../lib/gcc/arm-none-eabi/5.4.1/../../../../arm-none-eabi/lib/armv7e-m/fpu/libc_nano.a(lib_a-makebuf.o)
 .debug_frame   0x00002898       0x30 /home/wenda/opt/gcc-arm-none-eabi/bin/../lib/gcc/arm-none-eabi/5.4.1/../../../../arm-none-eabi/lib/armv7e-m/fpu/libc_nano.a(lib_a-mlock.o)
 .debug_frame   0x000028c8       0x3c /home/wenda/opt/gcc-arm-none-eabi/bin/../lib/gcc/arm-none-eabi/5.4.1/../../../../arm-none-eabi/lib/armv7e-m/fpu/libc_nano.a(lib_a-nano-reallocr.o)
 .debug_frame   0x00002904       0xac /home/wenda/opt/gcc-arm-none-eabi/bin/../lib/gcc/arm-none-eabi/5.4.1/../../../../arm-none-eabi/lib/armv7e-m/fpu/libc_nano.a(lib_a-nano-vfprintf.o)
 .debug_frame   0x000029b0       0x60 /home/wenda/opt/gcc-arm-none-eabi/bin/../lib/gcc/arm-none-eabi/5.4.1/../../../../arm-none-eabi/lib/armv7e-m/fpu/libc_nano.a(lib_a-nano-vfprintf_i.o)
 .debug_frame   0x00002a10       0x5c /home/wenda/opt/gcc-arm-none-eabi/bin/../lib/gcc/arm-none-eabi/5.4.1/../../../../arm-none-eabi/lib/armv7e-m/fpu/libc_nano.a(lib_a-reent.o)
 .debug_frame   0x00002a6c       0x88 /home/wenda/opt/gcc-arm-none-eabi/bin/../lib/gcc/arm-none-eabi/5.4.1/../../../../arm-none-eabi/lib/armv7e-m/fpu/libc_nano.a(lib_a-stdio.o)
 .debug_frame   0x00002af4       0x2c /home/wenda/opt/gcc-arm-none-eabi/bin/../lib/gcc/arm-none-eabi/5.4.1/../../../../arm-none-eabi/lib/armv7e-m/fpu/libc_nano.a(lib_a-writer.o)
 .debug_frame   0x00002b20       0x2c /home/wenda/opt/gcc-arm-none-eabi/bin/../lib/gcc/arm-none-eabi/5.4.1/../../../../arm-none-eabi/lib/armv7e-m/fpu/libc_nano.a(lib_a-closer.o)
 .debug_frame   0x00002b4c       0x2c /home/wenda/opt/gcc-arm-none-eabi/bin/../lib/gcc/arm-none-eabi/5.4.1/../../../../arm-none-eabi/lib/armv7e-m/fpu/libc_nano.a(lib_a-fstatr.o)
 .debug_frame   0x00002b78       0x3c /home/wenda/opt/gcc-arm-none-eabi/bin/../lib/gcc/arm-none-eabi/5.4.1/../../../../arm-none-eabi/lib/armv7e-m/fpu/libc_nano.a(lib_a-fvwrite.o)
 .debug_frame   0x00002bb4       0x2c /home/wenda/opt/gcc-arm-none-eabi/bin/../lib/gcc/arm-none-eabi/5.4.1/../../../../arm-none-eabi/lib/armv7e-m/fpu/libc_nano.a(lib_a-isattyr.o)
 .debug_frame   0x00002be0       0x2c /home/wenda/opt/gcc-arm-none-eabi/bin/../lib/gcc/arm-none-eabi/5.4.1/../../../../arm-none-eabi/lib/armv7e-m/fpu/libc_nano.a(lib_a-lseekr.o)
 .debug_frame   0x00002c0c       0x28 /home/wenda/opt/gcc-arm-none-eabi/bin/../lib/gcc/arm-none-eabi/5.4.1/../../../../arm-none-eabi/lib/armv7e-m/fpu/libc_nano.a(lib_a-memmove.o)
 .debug_frame   0x00002c34       0x20 /home/wenda/opt/gcc-arm-none-eabi/bin/../lib/gcc/arm-none-eabi/5.4.1/../../../../arm-none-eabi/lib/armv7e-m/fpu/libc_nano.a(lib_a-nano-msizer.o)
 .debug_frame   0x00002c54       0x2c /home/wenda/opt/gcc-arm-none-eabi/bin/../lib/gcc/arm-none-eabi/5.4.1/../../../../arm-none-eabi/lib/armv7e-m/fpu/libc_nano.a(lib_a-readr.o)
 .debug_frame   0x00002c80       0x20 /home/wenda/opt/gcc-arm-none-eabi/bin/../lib/gcc/arm-none-eabi/5.4.1/../../../../arm-none-eabi/lib/armv7e-m/fpu/libnosys.a(close.o)
 .debug_frame   0x00002ca0       0x20 /home/wenda/opt/gcc-arm-none-eabi/bin/../lib/gcc/arm-none-eabi/5.4.1/../../../../arm-none-eabi/lib/armv7e-m/fpu/libnosys.a(fstat.o)
 .debug_frame   0x00002cc0       0x20 /home/wenda/opt/gcc-arm-none-eabi/bin/../lib/gcc/arm-none-eabi/5.4.1/../../../../arm-none-eabi/lib/armv7e-m/fpu/libnosys.a(getpid.o)
 .debug_frame   0x00002ce0       0x20 /home/wenda/opt/gcc-arm-none-eabi/bin/../lib/gcc/arm-none-eabi/5.4.1/../../../../arm-none-eabi/lib/armv7e-m/fpu/libnosys.a(isatty.o)
 .debug_frame   0x00002d00       0x20 /home/wenda/opt/gcc-arm-none-eabi/bin/../lib/gcc/arm-none-eabi/5.4.1/../../../../arm-none-eabi/lib/armv7e-m/fpu/libnosys.a(kill.o)
 .debug_frame   0x00002d20       0x20 /home/wenda/opt/gcc-arm-none-eabi/bin/../lib/gcc/arm-none-eabi/5.4.1/../../../../arm-none-eabi/lib/armv7e-m/fpu/libnosys.a(lseek.o)
 .debug_frame   0x00002d40       0x20 /home/wenda/opt/gcc-arm-none-eabi/bin/../lib/gcc/arm-none-eabi/5.4.1/../../../../arm-none-eabi/lib/armv7e-m/fpu/libnosys.a(read.o)
 .debug_frame   0x00002d60       0x20 /home/wenda/opt/gcc-arm-none-eabi/bin/../lib/gcc/arm-none-eabi/5.4.1/../../../../arm-none-eabi/lib/armv7e-m/fpu/libnosys.a(sbrk.o)
 .debug_frame   0x00002d80       0x20 /home/wenda/opt/gcc-arm-none-eabi/bin/../lib/gcc/arm-none-eabi/5.4.1/../../../../arm-none-eabi/lib/armv7e-m/fpu/libnosys.a(write.o)
 .debug_frame   0x00002da0       0x20 /home/wenda/opt/gcc-arm-none-eabi/bin/../lib/gcc/arm-none-eabi/5.4.1/../../../../arm-none-eabi/lib/armv7e-m/fpu/libnosys.a(_exit.o)

.debug_str      0x00000000    0x57dbd
 *(.debug_str)
 .debug_str     0x00000000      0x543 tensorflow/lite/experimental/micro/micro_error_reporter.o
                                0x6d2 (size before relaxing)
 .debug_str     0x00000543    0x304d0 tensorflow/lite/experimental/micro/micro_mutable_op_resolver.o
                              0x3124b (size before relaxing)
 .debug_str     0x00030a13     0x2b1e tensorflow/lite/experimental/micro/simple_tensor_allocator.o
                              0x205b7 (size before relaxing)
 .debug_str     0x00033531       0xf4 tensorflow/lite/experimental/micro/debug_log.o
                                0x695 (size before relaxing)
 .debug_str     0x00033625      0x1b0 tensorflow/lite/experimental/micro/debug_log_numbers.o
                                0x5b2 (size before relaxing)
 .debug_str     0x000337d5    0x1c2db tensorflow/lite/experimental/micro/micro_interpreter.o
                              0x500c2 (size before relaxing)
 .debug_str     0x0004fab0     0x1a72 tensorflow/lite/experimental/micro/kernels/depthwise_conv.o
                               0x31c5 (size before relaxing)
 .debug_str     0x00051522     0x3096 tensorflow/lite/experimental/micro/kernels/softmax.o
                               0x57d8 (size before relaxing)
 .debug_str     0x000545b8      0x29d tensorflow/lite/experimental/micro/kernels/all_ops_resolver.o
                              0x31413 (size before relaxing)
 .debug_str     0x00054855      0x509 tensorflow/lite/experimental/micro/kernels/fully_connected.o
                               0x3133 (size before relaxing)
 .debug_str     0x00054d5e       0x2b tensorflow/lite/core/api/error_reporter.o
                                0x280 (size before relaxing)
 .debug_str     0x00054d89     0x1249 tensorflow/lite/core/api/flatbuffer_conversions.o
                              0x30351 (size before relaxing)
 .debug_str     0x00055fd2       0x7d tensorflow/lite/core/api/op_resolver.o
                              0x17408 (size before relaxing)
 .debug_str     0x0005604f      0x4bb tensorflow/lite/kernels/kernel_util.o
                               0x203b (size before relaxing)
 .debug_str     0x0005650a      0x8ae tensorflow/lite/kernels/internal/quantization_util.o
                               0x1b9e (size before relaxing)
 .debug_str     0x00056db8      0x12b tensorflow/lite/experimental/micro/examples/micro_speech/model_settings.o
                                0x21f (size before relaxing)
 .debug_str     0x00056ee3      0x10b tensorflow/lite/experimental/micro/examples/micro_speech/audio_provider.o
                                0x7a3 (size before relaxing)
 .debug_str     0x00056fee      0x27e tensorflow/lite/experimental/micro/examples/micro_speech/feature_provider.o
                                0x990 (size before relaxing)
 .debug_str     0x0005726c      0x16b tensorflow/lite/experimental/micro/examples/micro_speech/preprocessor.o
                                0x86c (size before relaxing)
 .debug_str     0x000573d7       0xa4 tensorflow/lite/experimental/micro/examples/micro_speech/no_features_data.o
                                0x1a1 (size before relaxing)
 .debug_str     0x0005747b       0xa8 tensorflow/lite/experimental/micro/examples/micro_speech/yes_features_data.o
                                0x1a5 (size before relaxing)
 .debug_str     0x00057523       0x83 tensorflow/lite/experimental/micro/examples/micro_speech/tiny_conv_model_data.o
                                0x180 (size before relaxing)
 .debug_str     0x000575a6      0x51d tensorflow/lite/experimental/micro/examples/micro_speech/recognize_commands.o
                               0x1534 (size before relaxing)
 .debug_str     0x00057ac3      0x287 machinelearning.o
                              0x4e75e (size before relaxing)
 .debug_str     0x00057d4a       0x26 tfmicro_models.o
                                0x140 (size before relaxing)
 .debug_str     0x00057d70       0x4d tf_micro_model_backup.o
                                0x161 (size before relaxing)

.debug_loc      0x00000000     0xc72a
 *(.debug_loc)
 .debug_loc     0x00000000      0x149 tensorflow/lite/experimental/micro/micro_error_reporter.o
 .debug_loc     0x00000149      0x24f tensorflow/lite/experimental/micro/micro_mutable_op_resolver.o
 .debug_loc     0x00000398      0x800 tensorflow/lite/experimental/micro/simple_tensor_allocator.o
 .debug_loc     0x00000b98       0x21 tensorflow/lite/experimental/micro/debug_log.o
 .debug_loc     0x00000bb9      0x56c tensorflow/lite/experimental/micro/debug_log_numbers.o
 .debug_loc     0x00001125      0xea8 tensorflow/lite/experimental/micro/micro_interpreter.o
 .debug_loc     0x00001fcd     0x1734 tensorflow/lite/experimental/micro/kernels/depthwise_conv.o
 .debug_loc     0x00003701     0x1c57 tensorflow/lite/experimental/micro/kernels/softmax.o
 .debug_loc     0x00005358       0x3c tensorflow/lite/experimental/micro/kernels/all_ops_resolver.o
 .debug_loc     0x00005394     0x17a6 tensorflow/lite/experimental/micro/kernels/fully_connected.o
 .debug_loc     0x00006b3a       0x42 tensorflow/lite/core/api/error_reporter.o
 .debug_loc     0x00006b7c     0x2854 tensorflow/lite/core/api/flatbuffer_conversions.o
 .debug_loc     0x000093d0      0x2fd tensorflow/lite/core/api/op_resolver.o
 .debug_loc     0x000096cd      0x730 tensorflow/lite/kernels/kernel_util.o
 .debug_loc     0x00009dfd      0xfb3 tensorflow/lite/kernels/internal/quantization_util.o
 .debug_loc     0x0000adb0       0xb0 tensorflow/lite/experimental/micro/examples/micro_speech/audio_provider.o
 .debug_loc     0x0000ae60      0x3ea tensorflow/lite/experimental/micro/examples/micro_speech/feature_provider.o
 .debug_loc     0x0000b24a      0x4ec tensorflow/lite/experimental/micro/examples/micro_speech/preprocessor.o
 .debug_loc     0x0000b736      0x594 tensorflow/lite/experimental/micro/examples/micro_speech/recognize_commands.o
 .debug_loc     0x0000bcca      0xa60 machinelearning.o

.debug_macinfo
 *(.debug_macinfo)

.debug_weaknames
 *(.debug_weaknames)

.debug_funcnames
 *(.debug_funcnames)

.debug_typenames
 *(.debug_typenames)

.debug_varnames
 *(.debug_varnames)

.debug_pubtypes
 *(.debug_pubtypes)

.debug_ranges   0x00000000     0x1790
 *(.debug_ranges)
 .debug_ranges  0x00000000       0x30 tensorflow/lite/experimental/micro/micro_error_reporter.o
 .debug_ranges  0x00000030       0xd8 tensorflow/lite/experimental/micro/micro_mutable_op_resolver.o
 .debug_ranges  0x00000108       0x88 tensorflow/lite/experimental/micro/simple_tensor_allocator.o
 .debug_ranges  0x00000190       0x60 tensorflow/lite/experimental/micro/debug_log_numbers.o
 .debug_ranges  0x000001f0      0x300 tensorflow/lite/experimental/micro/micro_interpreter.o
 .debug_ranges  0x000004f0      0x338 tensorflow/lite/experimental/micro/kernels/depthwise_conv.o
 .debug_ranges  0x00000828      0x4b8 tensorflow/lite/experimental/micro/kernels/softmax.o
 .debug_ranges  0x00000ce0       0x30 tensorflow/lite/experimental/micro/kernels/all_ops_resolver.o
 .debug_ranges  0x00000d10      0x218 tensorflow/lite/experimental/micro/kernels/fully_connected.o
 .debug_ranges  0x00000f28      0x4f0 tensorflow/lite/core/api/flatbuffer_conversions.o
 .debug_ranges  0x00001418       0x48 tensorflow/lite/core/api/op_resolver.o
 .debug_ranges  0x00001460       0x50 tensorflow/lite/kernels/kernel_util.o
 .debug_ranges  0x000014b0       0x60 tensorflow/lite/kernels/internal/quantization_util.o
 .debug_ranges  0x00001510       0x30 tensorflow/lite/experimental/micro/examples/micro_speech/feature_provider.o
 .debug_ranges  0x00001540      0x110 tensorflow/lite/experimental/micro/examples/micro_speech/preprocessor.o
 .debug_ranges  0x00001650       0xc8 tensorflow/lite/experimental/micro/examples/micro_speech/recognize_commands.o
 .debug_ranges  0x00001718       0x78 machinelearning.o

.debug_macro
 *(.debug_macro)

.stack          0x00080000        0x0
                0x00080000                _stack = .
 *(.stack)

.ARM.attributes
                0x00000000       0x30
 *(.ARM.attributes)
 .ARM.attributes
                0x00000000       0x22 /home/wenda/opt/gcc-arm-none-eabi/bin/../lib/gcc/arm-none-eabi/5.4.1/armv7e-m/fpu/crti.o
 .ARM.attributes
                0x00000022       0x34 /home/wenda/opt/gcc-arm-none-eabi/bin/../lib/gcc/arm-none-eabi/5.4.1/armv7e-m/fpu/crtbegin.o
 .ARM.attributes
                0x00000056       0x20 /home/wenda/opt/gcc-arm-none-eabi/bin/../lib/gcc/arm-none-eabi/5.4.1/../../../../arm-none-eabi/lib/armv7e-m/fpu/crt0.o
 .ARM.attributes
                0x00000076       0x39 tensorflow/lite/experimental/micro/micro_error_reporter.o
 .ARM.attributes
                0x000000af       0x39 tensorflow/lite/experimental/micro/micro_mutable_op_resolver.o
 .ARM.attributes
                0x000000e8       0x39 tensorflow/lite/experimental/micro/simple_tensor_allocator.o
 .ARM.attributes
                0x00000121       0x39 tensorflow/lite/experimental/micro/debug_log.o
 .ARM.attributes
                0x0000015a       0x39 tensorflow/lite/experimental/micro/debug_log_numbers.o
 .ARM.attributes
                0x00000193       0x39 tensorflow/lite/experimental/micro/micro_interpreter.o
 .ARM.attributes
                0x000001cc       0x39 tensorflow/lite/experimental/micro/kernels/depthwise_conv.o
 .ARM.attributes
                0x00000205       0x39 tensorflow/lite/experimental/micro/kernels/softmax.o
 .ARM.attributes
                0x0000023e       0x39 tensorflow/lite/experimental/micro/kernels/all_ops_resolver.o
 .ARM.attributes
                0x00000277       0x39 tensorflow/lite/experimental/micro/kernels/fully_connected.o
 .ARM.attributes
                0x000002b0       0x39 tensorflow/lite/c/c_api_internal.o
 .ARM.attributes
                0x000002e9       0x39 tensorflow/lite/core/api/error_reporter.o
 .ARM.attributes
                0x00000322       0x39 tensorflow/lite/core/api/flatbuffer_conversions.o
 .ARM.attributes
                0x0000035b       0x39 tensorflow/lite/core/api/op_resolver.o
 .ARM.attributes
                0x00000394       0x39 tensorflow/lite/kernels/kernel_util.o
 .ARM.attributes
                0x000003cd       0x39 tensorflow/lite/kernels/internal/quantization_util.o
 .ARM.attributes
                0x00000406       0x39 tensorflow/lite/experimental/micro/examples/micro_speech/model_settings.o
 .ARM.attributes
                0x0000043f       0x39 tensorflow/lite/experimental/micro/examples/micro_speech/audio_provider.o
 .ARM.attributes
                0x00000478       0x39 tensorflow/lite/experimental/micro/examples/micro_speech/feature_provider.o
 .ARM.attributes
                0x000004b1       0x39 tensorflow/lite/experimental/micro/examples/micro_speech/preprocessor.o
 .ARM.attributes
                0x000004ea       0x39 tensorflow/lite/experimental/micro/examples/micro_speech/no_features_data.o
 .ARM.attributes
                0x00000523       0x39 tensorflow/lite/experimental/micro/examples/micro_speech/yes_features_data.o
 .ARM.attributes
                0x0000055c       0x39 tensorflow/lite/experimental/micro/examples/micro_speech/tiny_conv_model_data.o
 .ARM.attributes
                0x00000595       0x39 tensorflow/lite/experimental/micro/examples/micro_speech/recognize_commands.o
 .ARM.attributes
                0x000005ce       0x39 machinelearning.o
 .ARM.attributes
                0x00000607       0x39 tfmicro_models.o
 .ARM.attributes
                0x00000640       0x39 tf_micro_model_backup.o
 .ARM.attributes
                0x00000679       0x39 main.o
 .ARM.attributes
                0x000006b2       0x34 /home/wenda/opt/gcc-arm-none-eabi/bin/../lib/gcc/arm-none-eabi/5.4.1/../../../../arm-none-eabi/lib/armv7e-m/fpu/libstdc++_nano.a(del_op.o)
 .ARM.attributes
                0x000006e6       0x34 /home/wenda/opt/gcc-arm-none-eabi/bin/../lib/gcc/arm-none-eabi/5.4.1/../../../../arm-none-eabi/lib/armv7e-m/fpu/libstdc++_nano.a(si_class_type_info.o)
 .ARM.attributes
                0x0000071a       0x34 /home/wenda/opt/gcc-arm-none-eabi/bin/../lib/gcc/arm-none-eabi/5.4.1/../../../../arm-none-eabi/lib/armv7e-m/fpu/libstdc++_nano.a(eh_personality.o)
 .ARM.attributes
                0x0000074e       0x34 /home/wenda/opt/gcc-arm-none-eabi/bin/../lib/gcc/arm-none-eabi/5.4.1/../../../../arm-none-eabi/lib/armv7e-m/fpu/libstdc++_nano.a(eh_terminate.o)
 .ARM.attributes
                0x00000782       0x34 /home/wenda/opt/gcc-arm-none-eabi/bin/../lib/gcc/arm-none-eabi/5.4.1/../../../../arm-none-eabi/lib/armv7e-m/fpu/libstdc++_nano.a(tinfo.o)
 .ARM.attributes
                0x000007b6       0x34 /home/wenda/opt/gcc-arm-none-eabi/bin/../lib/gcc/arm-none-eabi/5.4.1/../../../../arm-none-eabi/lib/armv7e-m/fpu/libstdc++_nano.a(eh_arm.o)
 .ARM.attributes
                0x000007ea       0x34 /home/wenda/opt/gcc-arm-none-eabi/bin/../lib/gcc/arm-none-eabi/5.4.1/../../../../arm-none-eabi/lib/armv7e-m/fpu/libstdc++_nano.a(class_type_info.o)
 .ARM.attributes
                0x0000081e       0x34 /home/wenda/opt/gcc-arm-none-eabi/bin/../lib/gcc/arm-none-eabi/5.4.1/../../../../arm-none-eabi/lib/armv7e-m/fpu/libstdc++_nano.a(eh_call.o)
 .ARM.attributes
                0x00000852       0x34 /home/wenda/opt/gcc-arm-none-eabi/bin/../lib/gcc/arm-none-eabi/5.4.1/../../../../arm-none-eabi/lib/armv7e-m/fpu/libstdc++_nano.a(eh_catch.o)
 .ARM.attributes
                0x00000886       0x34 /home/wenda/opt/gcc-arm-none-eabi/bin/../lib/gcc/arm-none-eabi/5.4.1/../../../../arm-none-eabi/lib/armv7e-m/fpu/libstdc++_nano.a(eh_term_handler.o)
 .ARM.attributes
                0x000008ba       0x34 /home/wenda/opt/gcc-arm-none-eabi/bin/../lib/gcc/arm-none-eabi/5.4.1/../../../../arm-none-eabi/lib/armv7e-m/fpu/libstdc++_nano.a(eh_unex_handler.o)
 .ARM.attributes
                0x000008ee       0x34 /home/wenda/opt/gcc-arm-none-eabi/bin/../lib/gcc/arm-none-eabi/5.4.1/../../../../arm-none-eabi/lib/armv7e-m/fpu/libstdc++_nano.a(eh_globals.o)
 .ARM.attributes
                0x00000922       0x34 /home/wenda/opt/gcc-arm-none-eabi/bin/../lib/gcc/arm-none-eabi/5.4.1/../../../../arm-none-eabi/lib/armv7e-m/fpu/libstdc++_nano.a(eh_exception.o)
 .ARM.attributes
                0x00000956       0x34 /home/wenda/opt/gcc-arm-none-eabi/bin/../lib/gcc/arm-none-eabi/5.4.1/../../../../arm-none-eabi/lib/armv7e-m/fpu/libstdc++_nano.a(pure.o)
 .ARM.attributes
                0x0000098a       0x34 /home/wenda/opt/gcc-arm-none-eabi/bin/../lib/gcc/arm-none-eabi/5.4.1/../../../../arm-none-eabi/lib/armv7e-m/fpu/libm.a(lib_a-s_cos.o)
 .ARM.attributes
                0x000009be       0x34 /home/wenda/opt/gcc-arm-none-eabi/bin/../lib/gcc/arm-none-eabi/5.4.1/../../../../arm-none-eabi/lib/armv7e-m/fpu/libm.a(lib_a-s_floor.o)
 .ARM.attributes
                0x000009f2       0x34 /home/wenda/opt/gcc-arm-none-eabi/bin/../lib/gcc/arm-none-eabi/5.4.1/../../../../arm-none-eabi/lib/armv7e-m/fpu/libm.a(lib_a-s_frexp.o)
 .ARM.attributes
                0x00000a26       0x34 /home/wenda/opt/gcc-arm-none-eabi/bin/../lib/gcc/arm-none-eabi/5.4.1/../../../../arm-none-eabi/lib/armv7e-m/fpu/libm.a(lib_a-s_round.o)
 .ARM.attributes
                0x00000a5a       0x34 /home/wenda/opt/gcc-arm-none-eabi/bin/../lib/gcc/arm-none-eabi/5.4.1/../../../../arm-none-eabi/lib/armv7e-m/fpu/libm.a(lib_a-s_sin.o)
 .ARM.attributes
                0x00000a8e       0x34 /home/wenda/opt/gcc-arm-none-eabi/bin/../lib/gcc/arm-none-eabi/5.4.1/../../../../arm-none-eabi/lib/armv7e-m/fpu/libm.a(lib_a-sf_round.o)
 .ARM.attributes
                0x00000ac2       0x34 /home/wenda/opt/gcc-arm-none-eabi/bin/../lib/gcc/arm-none-eabi/5.4.1/../../../../arm-none-eabi/lib/armv7e-m/fpu/libm.a(lib_a-w_exp.o)
 .ARM.attributes
                0x00000af6       0x34 /home/wenda/opt/gcc-arm-none-eabi/bin/../lib/gcc/arm-none-eabi/5.4.1/../../../../arm-none-eabi/lib/armv7e-m/fpu/libm.a(lib_a-wf_exp.o)
 .ARM.attributes
                0x00000b2a       0x34 /home/wenda/opt/gcc-arm-none-eabi/bin/../lib/gcc/arm-none-eabi/5.4.1/../../../../arm-none-eabi/lib/armv7e-m/fpu/libm.a(lib_a-wf_log.o)
 .ARM.attributes
                0x00000b5e       0x34 /home/wenda/opt/gcc-arm-none-eabi/bin/../lib/gcc/arm-none-eabi/5.4.1/../../../../arm-none-eabi/lib/armv7e-m/fpu/libm.a(lib_a-e_exp.o)
 .ARM.attributes
                0x00000b92       0x34 /home/wenda/opt/gcc-arm-none-eabi/bin/../lib/gcc/arm-none-eabi/5.4.1/../../../../arm-none-eabi/lib/armv7e-m/fpu/libm.a(lib_a-e_rem_pio2.o)
 .ARM.attributes
                0x00000bc6       0x34 /home/wenda/opt/gcc-arm-none-eabi/bin/../lib/gcc/arm-none-eabi/5.4.1/../../../../arm-none-eabi/lib/armv7e-m/fpu/libm.a(lib_a-ef_exp.o)
 .ARM.attributes
                0x00000bfa       0x34 /home/wenda/opt/gcc-arm-none-eabi/bin/../lib/gcc/arm-none-eabi/5.4.1/../../../../arm-none-eabi/lib/armv7e-m/fpu/libm.a(lib_a-ef_log.o)
 .ARM.attributes
                0x00000c2e       0x34 /home/wenda/opt/gcc-arm-none-eabi/bin/../lib/gcc/arm-none-eabi/5.4.1/../../../../arm-none-eabi/lib/armv7e-m/fpu/libm.a(lib_a-k_cos.o)
 .ARM.attributes
                0x00000c62       0x34 /home/wenda/opt/gcc-arm-none-eabi/bin/../lib/gcc/arm-none-eabi/5.4.1/../../../../arm-none-eabi/lib/armv7e-m/fpu/libm.a(lib_a-k_rem_pio2.o)
 .ARM.attributes
                0x00000c96       0x34 /home/wenda/opt/gcc-arm-none-eabi/bin/../lib/gcc/arm-none-eabi/5.4.1/../../../../arm-none-eabi/lib/armv7e-m/fpu/libm.a(lib_a-k_sin.o)
 .ARM.attributes
                0x00000cca       0x34 /home/wenda/opt/gcc-arm-none-eabi/bin/../lib/gcc/arm-none-eabi/5.4.1/../../../../arm-none-eabi/lib/armv7e-m/fpu/libm.a(lib_a-s_fabs.o)
 .ARM.attributes
                0x00000cfe       0x34 /home/wenda/opt/gcc-arm-none-eabi/bin/../lib/gcc/arm-none-eabi/5.4.1/../../../../arm-none-eabi/lib/armv7e-m/fpu/libm.a(lib_a-s_finite.o)
 .ARM.attributes
                0x00000d32       0x34 /home/wenda/opt/gcc-arm-none-eabi/bin/../lib/gcc/arm-none-eabi/5.4.1/../../../../arm-none-eabi/lib/armv7e-m/fpu/libm.a(lib_a-s_lib_ver.o)
 .ARM.attributes
                0x00000d66       0x34 /home/wenda/opt/gcc-arm-none-eabi/bin/../lib/gcc/arm-none-eabi/5.4.1/../../../../arm-none-eabi/lib/armv7e-m/fpu/libm.a(lib_a-s_matherr.o)
 .ARM.attributes
                0x00000d9a       0x34 /home/wenda/opt/gcc-arm-none-eabi/bin/../lib/gcc/arm-none-eabi/5.4.1/../../../../arm-none-eabi/lib/armv7e-m/fpu/libm.a(lib_a-s_nan.o)
 .ARM.attributes
                0x00000dce       0x34 /home/wenda/opt/gcc-arm-none-eabi/bin/../lib/gcc/arm-none-eabi/5.4.1/../../../../arm-none-eabi/lib/armv7e-m/fpu/libm.a(lib_a-s_scalbn.o)
 .ARM.attributes
                0x00000e02       0x34 /home/wenda/opt/gcc-arm-none-eabi/bin/../lib/gcc/arm-none-eabi/5.4.1/../../../../arm-none-eabi/lib/armv7e-m/fpu/libm.a(lib_a-sf_finite.o)
 .ARM.attributes
                0x00000e36       0x34 /home/wenda/opt/gcc-arm-none-eabi/bin/../lib/gcc/arm-none-eabi/5.4.1/../../../../arm-none-eabi/lib/armv7e-m/fpu/libm.a(lib_a-s_copysign.o)
 .ARM.attributes
                0x00000e6a       0x22 /home/wenda/opt/gcc-arm-none-eabi/bin/../lib/gcc/arm-none-eabi/5.4.1/armv7e-m/fpu/libgcc.a(_ashldi3.o)
 .ARM.attributes
                0x00000e8c       0x22 /home/wenda/opt/gcc-arm-none-eabi/bin/../lib/gcc/arm-none-eabi/5.4.1/armv7e-m/fpu/libgcc.a(_arm_addsubdf3.o)
 .ARM.attributes
                0x00000eae       0x22 /home/wenda/opt/gcc-arm-none-eabi/bin/../lib/gcc/arm-none-eabi/5.4.1/armv7e-m/fpu/libgcc.a(_arm_muldivdf3.o)
 .ARM.attributes
                0x00000ed0       0x22 /home/wenda/opt/gcc-arm-none-eabi/bin/../lib/gcc/arm-none-eabi/5.4.1/armv7e-m/fpu/libgcc.a(_arm_cmpdf2.o)
 .ARM.attributes
                0x00000ef2       0x22 /home/wenda/opt/gcc-arm-none-eabi/bin/../lib/gcc/arm-none-eabi/5.4.1/armv7e-m/fpu/libgcc.a(_arm_fixdfsi.o)
 .ARM.attributes
                0x00000f14       0x22 /home/wenda/opt/gcc-arm-none-eabi/bin/../lib/gcc/arm-none-eabi/5.4.1/armv7e-m/fpu/libgcc.a(_arm_truncdfsf2.o)
 .ARM.attributes
                0x00000f36       0x22 /home/wenda/opt/gcc-arm-none-eabi/bin/../lib/gcc/arm-none-eabi/5.4.1/armv7e-m/fpu/libgcc.a(_aeabi_ldivmod.o)
 .ARM.attributes
                0x00000f58       0x34 /home/wenda/opt/gcc-arm-none-eabi/bin/../lib/gcc/arm-none-eabi/5.4.1/armv7e-m/fpu/libgcc.a(_fixdfdi.o)
 .ARM.attributes
                0x00000f8c       0x34 /home/wenda/opt/gcc-arm-none-eabi/bin/../lib/gcc/arm-none-eabi/5.4.1/armv7e-m/fpu/libgcc.a(_fixunsdfdi.o)
 .ARM.attributes
                0x00000fc0       0x34 /home/wenda/opt/gcc-arm-none-eabi/bin/../lib/gcc/arm-none-eabi/5.4.1/armv7e-m/fpu/libgcc.a(_udivmoddi4.o)
 .ARM.attributes
                0x00000ff4       0x34 /home/wenda/opt/gcc-arm-none-eabi/bin/../lib/gcc/arm-none-eabi/5.4.1/armv7e-m/fpu/libgcc.a(unwind-arm.o)
 .ARM.attributes
                0x00001028       0x22 /home/wenda/opt/gcc-arm-none-eabi/bin/../lib/gcc/arm-none-eabi/5.4.1/armv7e-m/fpu/libgcc.a(libunwind.o)
 .ARM.attributes
                0x0000104a       0x34 /home/wenda/opt/gcc-arm-none-eabi/bin/../lib/gcc/arm-none-eabi/5.4.1/armv7e-m/fpu/libgcc.a(pr-support.o)
 .ARM.attributes
                0x0000107e       0x22 /home/wenda/opt/gcc-arm-none-eabi/bin/../lib/gcc/arm-none-eabi/5.4.1/armv7e-m/fpu/libgcc.a(_dvmd_tls.o)
 .ARM.attributes
                0x000010a0       0x22 /home/wenda/opt/gcc-arm-none-eabi/bin/../lib/gcc/arm-none-eabi/5.4.1/armv7e-m/fpu/libgcc.a(_arm_fixunsdfsi.o)
 .ARM.attributes
                0x000010c2       0x34 /home/wenda/opt/gcc-arm-none-eabi/bin/../lib/gcc/arm-none-eabi/5.4.1/../../../../arm-none-eabi/lib/armv7e-m/fpu/libc_nano.a(lib_a-abort.o)
 .ARM.attributes
                0x000010f6       0x34 /home/wenda/opt/gcc-arm-none-eabi/bin/../lib/gcc/arm-none-eabi/5.4.1/../../../../arm-none-eabi/lib/armv7e-m/fpu/libc_nano.a(lib_a-errno.o)
 .ARM.attributes
                0x0000112a       0x34 /home/wenda/opt/gcc-arm-none-eabi/bin/../lib/gcc/arm-none-eabi/5.4.1/../../../../arm-none-eabi/lib/armv7e-m/fpu/libc_nano.a(lib_a-exit.o)
 .ARM.attributes
                0x0000115e       0x34 /home/wenda/opt/gcc-arm-none-eabi/bin/../lib/gcc/arm-none-eabi/5.4.1/../../../../arm-none-eabi/lib/armv7e-m/fpu/libc_nano.a(lib_a-fputs.o)
 .ARM.attributes
                0x00001192       0x34 /home/wenda/opt/gcc-arm-none-eabi/bin/../lib/gcc/arm-none-eabi/5.4.1/../../../../arm-none-eabi/lib/armv7e-m/fpu/libc_nano.a(lib_a-impure.o)
 .ARM.attributes
                0x000011c6       0x34 /home/wenda/opt/gcc-arm-none-eabi/bin/../lib/gcc/arm-none-eabi/5.4.1/../../../../arm-none-eabi/lib/armv7e-m/fpu/libc_nano.a(lib_a-init.o)
 .ARM.attributes
                0x000011fa       0x34 /home/wenda/opt/gcc-arm-none-eabi/bin/../lib/gcc/arm-none-eabi/5.4.1/../../../../arm-none-eabi/lib/armv7e-m/fpu/libc_nano.a(lib_a-malloc.o)
 .ARM.attributes
                0x0000122e       0x34 /home/wenda/opt/gcc-arm-none-eabi/bin/../lib/gcc/arm-none-eabi/5.4.1/../../../../arm-none-eabi/lib/armv7e-m/fpu/libc_nano.a(lib_a-memcpy-stub.o)
 .ARM.attributes
                0x00001262       0x34 /home/wenda/opt/gcc-arm-none-eabi/bin/../lib/gcc/arm-none-eabi/5.4.1/../../../../arm-none-eabi/lib/armv7e-m/fpu/libc_nano.a(lib_a-memset.o)
 .ARM.attributes
                0x00001296       0x34 /home/wenda/opt/gcc-arm-none-eabi/bin/../lib/gcc/arm-none-eabi/5.4.1/../../../../arm-none-eabi/lib/armv7e-m/fpu/libc_nano.a(lib_a-nano-freer.o)
 .ARM.attributes
                0x000012ca       0x34 /home/wenda/opt/gcc-arm-none-eabi/bin/../lib/gcc/arm-none-eabi/5.4.1/../../../../arm-none-eabi/lib/armv7e-m/fpu/libc_nano.a(lib_a-nano-mallocr.o)
 .ARM.attributes
                0x000012fe       0x34 /home/wenda/opt/gcc-arm-none-eabi/bin/../lib/gcc/arm-none-eabi/5.4.1/../../../../arm-none-eabi/lib/armv7e-m/fpu/libc_nano.a(lib_a-printf.o)
 .ARM.attributes
                0x00001332       0x34 /home/wenda/opt/gcc-arm-none-eabi/bin/../lib/gcc/arm-none-eabi/5.4.1/../../../../arm-none-eabi/lib/armv7e-m/fpu/libc_nano.a(lib_a-puts.o)
 .ARM.attributes
                0x00001366       0x34 /home/wenda/opt/gcc-arm-none-eabi/bin/../lib/gcc/arm-none-eabi/5.4.1/../../../../arm-none-eabi/lib/armv7e-m/fpu/libc_nano.a(lib_a-realloc.o)
 .ARM.attributes
                0x0000139a       0x34 /home/wenda/opt/gcc-arm-none-eabi/bin/../lib/gcc/arm-none-eabi/5.4.1/../../../../arm-none-eabi/lib/armv7e-m/fpu/libc_nano.a(lib_a-sbrkr.o)
 .ARM.attributes
                0x000013ce       0x34 /home/wenda/opt/gcc-arm-none-eabi/bin/../lib/gcc/arm-none-eabi/5.4.1/../../../../arm-none-eabi/lib/armv7e-m/fpu/libc_nano.a(lib_a-signal.o)
 .ARM.attributes
                0x00001402       0x34 /home/wenda/opt/gcc-arm-none-eabi/bin/../lib/gcc/arm-none-eabi/5.4.1/../../../../arm-none-eabi/lib/armv7e-m/fpu/libc_nano.a(lib_a-signalr.o)
 .ARM.attributes
                0x00001436       0x20 /home/wenda/opt/gcc-arm-none-eabi/bin/../lib/gcc/arm-none-eabi/5.4.1/../../../../arm-none-eabi/lib/armv7e-m/fpu/libc_nano.a(lib_a-strcmp.o)
 .ARM.attributes
                0x00001456       0x34 /home/wenda/opt/gcc-arm-none-eabi/bin/../lib/gcc/arm-none-eabi/5.4.1/../../../../arm-none-eabi/lib/armv7e-m/fpu/libc_nano.a(lib_a-wbuf.o)
 .ARM.attributes
                0x0000148a       0x34 /home/wenda/opt/gcc-arm-none-eabi/bin/../lib/gcc/arm-none-eabi/5.4.1/../../../../arm-none-eabi/lib/armv7e-m/fpu/libc_nano.a(lib_a-wsetup.o)
 .ARM.attributes
                0x000014be       0x34 /home/wenda/opt/gcc-arm-none-eabi/bin/../lib/gcc/arm-none-eabi/5.4.1/../../../../arm-none-eabi/lib/armv7e-m/fpu/libc_nano.a(lib_a-fflush.o)
 .ARM.attributes
                0x000014f2       0x34 /home/wenda/opt/gcc-arm-none-eabi/bin/../lib/gcc/arm-none-eabi/5.4.1/../../../../arm-none-eabi/lib/armv7e-m/fpu/libc_nano.a(lib_a-findfp.o)
 .ARM.attributes
                0x00001526       0x34 /home/wenda/opt/gcc-arm-none-eabi/bin/../lib/gcc/arm-none-eabi/5.4.1/../../../../arm-none-eabi/lib/armv7e-m/fpu/libc_nano.a(lib_a-fwalk.o)
 .ARM.attributes
                0x0000155a       0x34 /home/wenda/opt/gcc-arm-none-eabi/bin/../lib/gcc/arm-none-eabi/5.4.1/../../../../arm-none-eabi/lib/armv7e-m/fpu/libc_nano.a(lib_a-makebuf.o)
 .ARM.attributes
                0x0000158e       0x34 /home/wenda/opt/gcc-arm-none-eabi/bin/../lib/gcc/arm-none-eabi/5.4.1/../../../../arm-none-eabi/lib/armv7e-m/fpu/libc_nano.a(lib_a-mlock.o)
 .ARM.attributes
                0x000015c2       0x34 /home/wenda/opt/gcc-arm-none-eabi/bin/../lib/gcc/arm-none-eabi/5.4.1/../../../../arm-none-eabi/lib/armv7e-m/fpu/libc_nano.a(lib_a-nano-reallocr.o)
 .ARM.attributes
                0x000015f6       0x34 /home/wenda/opt/gcc-arm-none-eabi/bin/../lib/gcc/arm-none-eabi/5.4.1/../../../../arm-none-eabi/lib/armv7e-m/fpu/libc_nano.a(lib_a-nano-vfprintf.o)
 .ARM.attributes
                0x0000162a       0x34 /home/wenda/opt/gcc-arm-none-eabi/bin/../lib/gcc/arm-none-eabi/5.4.1/../../../../arm-none-eabi/lib/armv7e-m/fpu/libc_nano.a(lib_a-nano-vfprintf_i.o)
 .ARM.attributes
                0x0000165e       0x34 /home/wenda/opt/gcc-arm-none-eabi/bin/../lib/gcc/arm-none-eabi/5.4.1/../../../../arm-none-eabi/lib/armv7e-m/fpu/libc_nano.a(lib_a-reent.o)
 .ARM.attributes
                0x00001692       0x34 /home/wenda/opt/gcc-arm-none-eabi/bin/../lib/gcc/arm-none-eabi/5.4.1/../../../../arm-none-eabi/lib/armv7e-m/fpu/libc_nano.a(lib_a-stdio.o)
 .ARM.attributes
                0x000016c6       0x34 /home/wenda/opt/gcc-arm-none-eabi/bin/../lib/gcc/arm-none-eabi/5.4.1/../../../../arm-none-eabi/lib/armv7e-m/fpu/libc_nano.a(lib_a-writer.o)
 .ARM.attributes
                0x000016fa       0x34 /home/wenda/opt/gcc-arm-none-eabi/bin/../lib/gcc/arm-none-eabi/5.4.1/../../../../arm-none-eabi/lib/armv7e-m/fpu/libc_nano.a(lib_a-closer.o)
 .ARM.attributes
                0x0000172e       0x34 /home/wenda/opt/gcc-arm-none-eabi/bin/../lib/gcc/arm-none-eabi/5.4.1/../../../../arm-none-eabi/lib/armv7e-m/fpu/libc_nano.a(lib_a-fstatr.o)
 .ARM.attributes
                0x00001762       0x34 /home/wenda/opt/gcc-arm-none-eabi/bin/../lib/gcc/arm-none-eabi/5.4.1/../../../../arm-none-eabi/lib/armv7e-m/fpu/libc_nano.a(lib_a-fvwrite.o)
 .ARM.attributes
                0x00001796       0x34 /home/wenda/opt/gcc-arm-none-eabi/bin/../lib/gcc/arm-none-eabi/5.4.1/../../../../arm-none-eabi/lib/armv7e-m/fpu/libc_nano.a(lib_a-isattyr.o)
 .ARM.attributes
                0x000017ca       0x34 /home/wenda/opt/gcc-arm-none-eabi/bin/../lib/gcc/arm-none-eabi/5.4.1/../../../../arm-none-eabi/lib/armv7e-m/fpu/libc_nano.a(lib_a-lseekr.o)
 .ARM.attributes
                0x000017fe       0x20 /home/wenda/opt/gcc-arm-none-eabi/bin/../lib/gcc/arm-none-eabi/5.4.1/../../../../arm-none-eabi/lib/armv7e-m/fpu/libc_nano.a(lib_a-memchr.o)
 .ARM.attributes
                0x0000181e       0x34 /home/wenda/opt/gcc-arm-none-eabi/bin/../lib/gcc/arm-none-eabi/5.4.1/../../../../arm-none-eabi/lib/armv7e-m/fpu/libc_nano.a(lib_a-memmove.o)
 .ARM.attributes
                0x00001852       0x34 /home/wenda/opt/gcc-arm-none-eabi/bin/../lib/gcc/arm-none-eabi/5.4.1/../../../../arm-none-eabi/lib/armv7e-m/fpu/libc_nano.a(lib_a-nano-msizer.o)
 .ARM.attributes
                0x00001886       0x34 /home/wenda/opt/gcc-arm-none-eabi/bin/../lib/gcc/arm-none-eabi/5.4.1/../../../../arm-none-eabi/lib/armv7e-m/fpu/libc_nano.a(lib_a-readr.o)
 .ARM.attributes
                0x000018ba       0x34 /home/wenda/opt/gcc-arm-none-eabi/bin/../lib/gcc/arm-none-eabi/5.4.1/../../../../arm-none-eabi/lib/armv7e-m/fpu/libnosys.a(close.o)
 .ARM.attributes
                0x000018ee       0x34 /home/wenda/opt/gcc-arm-none-eabi/bin/../lib/gcc/arm-none-eabi/5.4.1/../../../../arm-none-eabi/lib/armv7e-m/fpu/libnosys.a(fstat.o)
 .ARM.attributes
                0x00001922       0x34 /home/wenda/opt/gcc-arm-none-eabi/bin/../lib/gcc/arm-none-eabi/5.4.1/../../../../arm-none-eabi/lib/armv7e-m/fpu/libnosys.a(getpid.o)
 .ARM.attributes
                0x00001956       0x34 /home/wenda/opt/gcc-arm-none-eabi/bin/../lib/gcc/arm-none-eabi/5.4.1/../../../../arm-none-eabi/lib/armv7e-m/fpu/libnosys.a(isatty.o)
 .ARM.attributes
                0x0000198a       0x34 /home/wenda/opt/gcc-arm-none-eabi/bin/../lib/gcc/arm-none-eabi/5.4.1/../../../../arm-none-eabi/lib/armv7e-m/fpu/libnosys.a(kill.o)
 .ARM.attributes
                0x000019be       0x34 /home/wenda/opt/gcc-arm-none-eabi/bin/../lib/gcc/arm-none-eabi/5.4.1/../../../../arm-none-eabi/lib/armv7e-m/fpu/libnosys.a(lseek.o)
 .ARM.attributes
                0x000019f2       0x34 /home/wenda/opt/gcc-arm-none-eabi/bin/../lib/gcc/arm-none-eabi/5.4.1/../../../../arm-none-eabi/lib/armv7e-m/fpu/libnosys.a(read.o)
 .ARM.attributes
                0x00001a26       0x34 /home/wenda/opt/gcc-arm-none-eabi/bin/../lib/gcc/arm-none-eabi/5.4.1/../../../../arm-none-eabi/lib/armv7e-m/fpu/libnosys.a(sbrk.o)
 .ARM.attributes
                0x00001a5a       0x34 /home/wenda/opt/gcc-arm-none-eabi/bin/../lib/gcc/arm-none-eabi/5.4.1/../../../../arm-none-eabi/lib/armv7e-m/fpu/libnosys.a(write.o)
 .ARM.attributes
                0x00001a8e       0x34 /home/wenda/opt/gcc-arm-none-eabi/bin/../lib/gcc/arm-none-eabi/5.4.1/../../../../arm-none-eabi/lib/armv7e-m/fpu/libnosys.a(_exit.o)
 .ARM.attributes
                0x00001ac2       0x34 /home/wenda/opt/gcc-arm-none-eabi/bin/../lib/gcc/arm-none-eabi/5.4.1/armv7e-m/fpu/crtend.o
 .ARM.attributes
                0x00001af6       0x22 /home/wenda/opt/gcc-arm-none-eabi/bin/../lib/gcc/arm-none-eabi/5.4.1/armv7e-m/fpu/crtn.o
 *(.gnu.attributes)

.note.gnu.arm.ident
 *(.note.gnu.arm.ident)

/DISCARD/
 *(.note.GNU-stack)
 *(.gnu_debuglink)
 *(.gnu.lto_*)
OUTPUT(tfmicrotest elf32-littlearm)

Cross Reference Table

Symbol                                            File
CTfInterpreter_create_return_version              machinelearning.o
CTfInterpreter_simple_conv                        machinelearning.o
CTfInterpreter_simple_fc                          machinelearning.o
CTfLiteModel_create                               machinelearning.o
CTfLiteModel_destroy                              machinelearning.o
CTfLiteModel_dimensions                           machinelearning.o
CTfLiteModel_version                              machinelearning.o
DebugLog                                          tensorflow/lite/experimental/micro/debug_log.o
                                                  tensorflow/lite/experimental/micro/debug_log_numbers.o
                                                  tensorflow/lite/experimental/micro/micro_error_reporter.o
DebugLogFloat                                     tensorflow/lite/experimental/micro/debug_log_numbers.o
DebugLogHex                                       tensorflow/lite/experimental/micro/debug_log_numbers.o
DebugLogInt32                                     tensorflow/lite/experimental/micro/debug_log_numbers.o
                                                  tensorflow/lite/experimental/micro/micro_error_reporter.o
DebugLogUInt32                                    tensorflow/lite/experimental/micro/debug_log_numbers.o
FeatureProvider::FeatureProvider(int, unsigned char*) tensorflow/lite/experimental/micro/examples/micro_speech/feature_provider.o
FeatureProvider::FeatureProvider(int, unsigned char*) tensorflow/lite/experimental/micro/examples/micro_speech/feature_provider.o
FeatureProvider::PopulateFeatureData(tflite::ErrorReporter*, long, long, int*) tensorflow/lite/experimental/micro/examples/micro_speech/feature_provider.o
FeatureProvider::~FeatureProvider()               tensorflow/lite/experimental/micro/examples/micro_speech/feature_provider.o
FeatureProvider::~FeatureProvider()               tensorflow/lite/experimental/micro/examples/micro_speech/feature_provider.o
GetAudioSamples(tflite::ErrorReporter*, int, int, int*, short**) tensorflow/lite/experimental/micro/examples/micro_speech/audio_provider.o
                                                  tensorflow/lite/experimental/micro/examples/micro_speech/feature_provider.o
LatestAudioTimestamp()                            tensorflow/lite/experimental/micro/examples/micro_speech/audio_provider.o
Preprocess(tflite::ErrorReporter*, short const*, int, int, unsigned char*) tensorflow/lite/experimental/micro/examples/micro_speech/preprocessor.o
                                                  tensorflow/lite/experimental/micro/examples/micro_speech/feature_provider.o
Preprocess_1sec(tflite::ErrorReporter*, short const*, unsigned char*) tensorflow/lite/experimental/micro/examples/micro_speech/preprocessor.o
PreviousResultsQueue::Result::Result()            tensorflow/lite/experimental/micro/examples/micro_speech/recognize_commands.o
PreviousResultsQueue::Result::Result()            tensorflow/lite/experimental/micro/examples/micro_speech/recognize_commands.o
RecognizeCommands::ProcessLatestResults(TfLiteTensor const*, long, char const**, unsigned char*, bool*) tensorflow/lite/experimental/micro/examples/micro_speech/recognize_commands.o
RecognizeCommands::RecognizeCommands(tflite::ErrorReporter*, long, unsigned char, long, long) tensorflow/lite/experimental/micro/examples/micro_speech/recognize_commands.o
RecognizeCommands::RecognizeCommands(tflite::ErrorReporter*, long, unsigned char, long, long) tensorflow/lite/experimental/micro/examples/micro_speech/recognize_commands.o
TfLiteDelegateCreate                              tensorflow/lite/c/c_api_internal.o
TfLiteFakeQuantParams* tflite::BuiltinDataAllocator::AllocatePOD<TfLiteFakeQuantParams>() tensorflow/lite/core/api/flatbuffer_conversions.o
TfLiteFullyConnectedParams* tflite::BuiltinDataAllocator::AllocatePOD<TfLiteFullyConnectedParams>() tensorflow/lite/core/api/flatbuffer_conversions.o
TfLiteIntArrayCopy                                tensorflow/lite/c/c_api_internal.o
TfLiteIntArrayCreate                              tensorflow/lite/c/c_api_internal.o
TfLiteIntArrayEqual                               tensorflow/lite/c/c_api_internal.o
                                                  tensorflow/lite/kernels/kernel_util.o
TfLiteIntArrayEqualsArray                         tensorflow/lite/c/c_api_internal.o
TfLiteIntArrayFree                                tensorflow/lite/c/c_api_internal.o
TfLiteIntArrayGetSizeInBytes                      tensorflow/lite/c/c_api_internal.o
TfLiteIntArrayPrint                               tensorflow/lite/c/c_api_internal.o
TfLiteLeakyReluParams* tflite::BuiltinDataAllocator::AllocatePOD<TfLiteLeakyReluParams>() tensorflow/lite/core/api/flatbuffer_conversions.o
TfLiteSqueezeParams* tflite::BuiltinDataAllocator::AllocatePOD<TfLiteSqueezeParams>() tensorflow/lite/core/api/flatbuffer_conversions.o
TfLiteTensorDataFree                              tensorflow/lite/c/c_api_internal.o
TfLiteTensorFree                                  tensorflow/lite/c/c_api_internal.o
TfLiteTensorRealloc                               tensorflow/lite/c/c_api_internal.o
TfLiteTensorReset                                 tensorflow/lite/c/c_api_internal.o
TfLiteTransposeConvParams* tflite::BuiltinDataAllocator::AllocatePOD<TfLiteTransposeConvParams>() tensorflow/lite/core/api/flatbuffer_conversions.o
TfLiteTypeGetName                                 tensorflow/lite/c/c_api_internal.o
TfLiteUniqueParams* tflite::BuiltinDataAllocator::AllocatePOD<TfLiteUniqueParams>() tensorflow/lite/core/api/flatbuffer_conversions.o
TfLiteUnpackParams* tflite::BuiltinDataAllocator::AllocatePOD<TfLiteUnpackParams>() tensorflow/lite/core/api/flatbuffer_conversions.o
_Jv_RegisterClasses                               /home/wenda/opt/gcc-arm-none-eabi/bin/../lib/gcc/arm-none-eabi/5.4.1/armv7e-m/fpu/crtbegin.o
_Unwind_Backtrace                                 /home/wenda/opt/gcc-arm-none-eabi/bin/../lib/gcc/arm-none-eabi/5.4.1/armv7e-m/fpu/libgcc.a(libunwind.o)
_Unwind_Complete                                  /home/wenda/opt/gcc-arm-none-eabi/bin/../lib/gcc/arm-none-eabi/5.4.1/armv7e-m/fpu/libgcc.a(unwind-arm.o)
                                                  /home/wenda/opt/gcc-arm-none-eabi/bin/../lib/gcc/arm-none-eabi/5.4.1/../../../../arm-none-eabi/lib/armv7e-m/fpu/libstdc++_nano.a(eh_catch.o)
_Unwind_DeleteException                           /home/wenda/opt/gcc-arm-none-eabi/bin/../lib/gcc/arm-none-eabi/5.4.1/armv7e-m/fpu/libgcc.a(unwind-arm.o)
                                                  /home/wenda/opt/gcc-arm-none-eabi/bin/../lib/gcc/arm-none-eabi/5.4.1/../../../../arm-none-eabi/lib/armv7e-m/fpu/libstdc++_nano.a(eh_catch.o)
_Unwind_ForcedUnwind                              /home/wenda/opt/gcc-arm-none-eabi/bin/../lib/gcc/arm-none-eabi/5.4.1/armv7e-m/fpu/libgcc.a(libunwind.o)
_Unwind_GetCFA                                    /home/wenda/opt/gcc-arm-none-eabi/bin/../lib/gcc/arm-none-eabi/5.4.1/armv7e-m/fpu/libgcc.a(unwind-arm.o)
_Unwind_GetDataRelBase                            /home/wenda/opt/gcc-arm-none-eabi/bin/../lib/gcc/arm-none-eabi/5.4.1/armv7e-m/fpu/libgcc.a(pr-support.o)
                                                  /home/wenda/opt/gcc-arm-none-eabi/bin/../lib/gcc/arm-none-eabi/5.4.1/../../../../arm-none-eabi/lib/armv7e-m/fpu/libstdc++_nano.a(eh_personality.o)
_Unwind_GetLanguageSpecificData                   /home/wenda/opt/gcc-arm-none-eabi/bin/../lib/gcc/arm-none-eabi/5.4.1/armv7e-m/fpu/libgcc.a(pr-support.o)
                                                  /home/wenda/opt/gcc-arm-none-eabi/bin/../lib/gcc/arm-none-eabi/5.4.1/../../../../arm-none-eabi/lib/armv7e-m/fpu/libstdc++_nano.a(eh_personality.o)
_Unwind_GetRegionStart                            /home/wenda/opt/gcc-arm-none-eabi/bin/../lib/gcc/arm-none-eabi/5.4.1/armv7e-m/fpu/libgcc.a(pr-support.o)
                                                  /home/wenda/opt/gcc-arm-none-eabi/bin/../lib/gcc/arm-none-eabi/5.4.1/../../../../arm-none-eabi/lib/armv7e-m/fpu/libstdc++_nano.a(eh_personality.o)
_Unwind_GetTextRelBase                            /home/wenda/opt/gcc-arm-none-eabi/bin/../lib/gcc/arm-none-eabi/5.4.1/armv7e-m/fpu/libgcc.a(pr-support.o)
                                                  /home/wenda/opt/gcc-arm-none-eabi/bin/../lib/gcc/arm-none-eabi/5.4.1/../../../../arm-none-eabi/lib/armv7e-m/fpu/libstdc++_nano.a(eh_personality.o)
_Unwind_RaiseException                            /home/wenda/opt/gcc-arm-none-eabi/bin/../lib/gcc/arm-none-eabi/5.4.1/armv7e-m/fpu/libgcc.a(libunwind.o)
_Unwind_Resume                                    /home/wenda/opt/gcc-arm-none-eabi/bin/../lib/gcc/arm-none-eabi/5.4.1/armv7e-m/fpu/libgcc.a(libunwind.o)
                                                  /home/wenda/opt/gcc-arm-none-eabi/bin/../lib/gcc/arm-none-eabi/5.4.1/../../../../arm-none-eabi/lib/armv7e-m/fpu/libstdc++_nano.a(eh_arm.o)
_Unwind_Resume_or_Rethrow                         /home/wenda/opt/gcc-arm-none-eabi/bin/../lib/gcc/arm-none-eabi/5.4.1/armv7e-m/fpu/libgcc.a(libunwind.o)
_Unwind_VRS_Get                                   /home/wenda/opt/gcc-arm-none-eabi/bin/../lib/gcc/arm-none-eabi/5.4.1/armv7e-m/fpu/libgcc.a(unwind-arm.o)
                                                  /home/wenda/opt/gcc-arm-none-eabi/bin/../lib/gcc/arm-none-eabi/5.4.1/armv7e-m/fpu/libgcc.a(pr-support.o)
                                                  /home/wenda/opt/gcc-arm-none-eabi/bin/../lib/gcc/arm-none-eabi/5.4.1/../../../../arm-none-eabi/lib/armv7e-m/fpu/libstdc++_nano.a(eh_personality.o)
_Unwind_VRS_Pop                                   /home/wenda/opt/gcc-arm-none-eabi/bin/../lib/gcc/arm-none-eabi/5.4.1/armv7e-m/fpu/libgcc.a(unwind-arm.o)
                                                  /home/wenda/opt/gcc-arm-none-eabi/bin/../lib/gcc/arm-none-eabi/5.4.1/armv7e-m/fpu/libgcc.a(pr-support.o)
_Unwind_VRS_Set                                   /home/wenda/opt/gcc-arm-none-eabi/bin/../lib/gcc/arm-none-eabi/5.4.1/armv7e-m/fpu/libgcc.a(unwind-arm.o)
                                                  /home/wenda/opt/gcc-arm-none-eabi/bin/../lib/gcc/arm-none-eabi/5.4.1/armv7e-m/fpu/libgcc.a(pr-support.o)
                                                  /home/wenda/opt/gcc-arm-none-eabi/bin/../lib/gcc/arm-none-eabi/5.4.1/../../../../arm-none-eabi/lib/armv7e-m/fpu/libstdc++_nano.a(eh_personality.o)
___Unwind_Backtrace                               /home/wenda/opt/gcc-arm-none-eabi/bin/../lib/gcc/arm-none-eabi/5.4.1/armv7e-m/fpu/libgcc.a(libunwind.o)
___Unwind_ForcedUnwind                            /home/wenda/opt/gcc-arm-none-eabi/bin/../lib/gcc/arm-none-eabi/5.4.1/armv7e-m/fpu/libgcc.a(libunwind.o)
___Unwind_RaiseException                          /home/wenda/opt/gcc-arm-none-eabi/bin/../lib/gcc/arm-none-eabi/5.4.1/armv7e-m/fpu/libgcc.a(libunwind.o)
___Unwind_Resume                                  /home/wenda/opt/gcc-arm-none-eabi/bin/../lib/gcc/arm-none-eabi/5.4.1/armv7e-m/fpu/libgcc.a(libunwind.o)
___Unwind_Resume_or_Rethrow                       /home/wenda/opt/gcc-arm-none-eabi/bin/../lib/gcc/arm-none-eabi/5.4.1/armv7e-m/fpu/libgcc.a(libunwind.o)
__adddf3                                          /home/wenda/opt/gcc-arm-none-eabi/bin/../lib/gcc/arm-none-eabi/5.4.1/armv7e-m/fpu/libgcc.a(_arm_addsubdf3.o)
__aeabi_cdcmpeq                                   /home/wenda/opt/gcc-arm-none-eabi/bin/../lib/gcc/arm-none-eabi/5.4.1/armv7e-m/fpu/libgcc.a(_arm_cmpdf2.o)
__aeabi_cdcmple                                   /home/wenda/opt/gcc-arm-none-eabi/bin/../lib/gcc/arm-none-eabi/5.4.1/armv7e-m/fpu/libgcc.a(_arm_cmpdf2.o)
__aeabi_cdrcmple                                  /home/wenda/opt/gcc-arm-none-eabi/bin/../lib/gcc/arm-none-eabi/5.4.1/armv7e-m/fpu/libgcc.a(_arm_cmpdf2.o)
__aeabi_d2f                                       /home/wenda/opt/gcc-arm-none-eabi/bin/../lib/gcc/arm-none-eabi/5.4.1/armv7e-m/fpu/libgcc.a(_arm_truncdfsf2.o)
                                                  /home/wenda/opt/gcc-arm-none-eabi/bin/../lib/gcc/arm-none-eabi/5.4.1/../../../../arm-none-eabi/lib/armv7e-m/fpu/libm.a(lib_a-wf_log.o)
                                                  /home/wenda/opt/gcc-arm-none-eabi/bin/../lib/gcc/arm-none-eabi/5.4.1/../../../../arm-none-eabi/lib/armv7e-m/fpu/libm.a(lib_a-wf_exp.o)
                                                  tensorflow/lite/experimental/micro/examples/micro_speech/preprocessor.o
                                                  tensorflow/lite/kernels/internal/quantization_util.o
                                                  tensorflow/lite/kernels/kernel_util.o
                                                  tensorflow/lite/experimental/micro/kernels/softmax.o
__aeabi_d2iz                                      /home/wenda/opt/gcc-arm-none-eabi/bin/../lib/gcc/arm-none-eabi/5.4.1/armv7e-m/fpu/libgcc.a(_arm_fixdfsi.o)
                                                  /home/wenda/opt/gcc-arm-none-eabi/bin/../lib/gcc/arm-none-eabi/5.4.1/../../../../arm-none-eabi/lib/armv7e-m/fpu/libm.a(lib_a-k_sin.o)
                                                  /home/wenda/opt/gcc-arm-none-eabi/bin/../lib/gcc/arm-none-eabi/5.4.1/../../../../arm-none-eabi/lib/armv7e-m/fpu/libm.a(lib_a-k_rem_pio2.o)
                                                  /home/wenda/opt/gcc-arm-none-eabi/bin/../lib/gcc/arm-none-eabi/5.4.1/../../../../arm-none-eabi/lib/armv7e-m/fpu/libm.a(lib_a-k_cos.o)
                                                  /home/wenda/opt/gcc-arm-none-eabi/bin/../lib/gcc/arm-none-eabi/5.4.1/../../../../arm-none-eabi/lib/armv7e-m/fpu/libm.a(lib_a-e_rem_pio2.o)
                                                  /home/wenda/opt/gcc-arm-none-eabi/bin/../lib/gcc/arm-none-eabi/5.4.1/../../../../arm-none-eabi/lib/armv7e-m/fpu/libm.a(lib_a-e_exp.o)
                                                  tensorflow/lite/kernels/internal/quantization_util.o
                                                  tensorflow/lite/experimental/micro/kernels/softmax.o
__aeabi_d2lz                                      /home/wenda/opt/gcc-arm-none-eabi/bin/../lib/gcc/arm-none-eabi/5.4.1/armv7e-m/fpu/libgcc.a(_fixdfdi.o)
                                                  tensorflow/lite/kernels/internal/quantization_util.o
__aeabi_d2uiz                                     /home/wenda/opt/gcc-arm-none-eabi/bin/../lib/gcc/arm-none-eabi/5.4.1/armv7e-m/fpu/libgcc.a(_arm_fixunsdfsi.o)
                                                  /home/wenda/opt/gcc-arm-none-eabi/bin/../lib/gcc/arm-none-eabi/5.4.1/armv7e-m/fpu/libgcc.a(_fixunsdfdi.o)
__aeabi_d2ulz                                     /home/wenda/opt/gcc-arm-none-eabi/bin/../lib/gcc/arm-none-eabi/5.4.1/armv7e-m/fpu/libgcc.a(_fixunsdfdi.o)
                                                  /home/wenda/opt/gcc-arm-none-eabi/bin/../lib/gcc/arm-none-eabi/5.4.1/armv7e-m/fpu/libgcc.a(_fixdfdi.o)
__aeabi_dadd                                      /home/wenda/opt/gcc-arm-none-eabi/bin/../lib/gcc/arm-none-eabi/5.4.1/armv7e-m/fpu/libgcc.a(_arm_addsubdf3.o)
                                                  /home/wenda/opt/gcc-arm-none-eabi/bin/../lib/gcc/arm-none-eabi/5.4.1/../../../../arm-none-eabi/lib/armv7e-m/fpu/libm.a(lib_a-s_scalbn.o)
                                                  /home/wenda/opt/gcc-arm-none-eabi/bin/../lib/gcc/arm-none-eabi/5.4.1/../../../../arm-none-eabi/lib/armv7e-m/fpu/libm.a(lib_a-k_sin.o)
                                                  /home/wenda/opt/gcc-arm-none-eabi/bin/../lib/gcc/arm-none-eabi/5.4.1/../../../../arm-none-eabi/lib/armv7e-m/fpu/libm.a(lib_a-k_rem_pio2.o)
                                                  /home/wenda/opt/gcc-arm-none-eabi/bin/../lib/gcc/arm-none-eabi/5.4.1/../../../../arm-none-eabi/lib/armv7e-m/fpu/libm.a(lib_a-k_cos.o)
                                                  /home/wenda/opt/gcc-arm-none-eabi/bin/../lib/gcc/arm-none-eabi/5.4.1/../../../../arm-none-eabi/lib/armv7e-m/fpu/libm.a(lib_a-e_rem_pio2.o)
                                                  /home/wenda/opt/gcc-arm-none-eabi/bin/../lib/gcc/arm-none-eabi/5.4.1/../../../../arm-none-eabi/lib/armv7e-m/fpu/libm.a(lib_a-e_exp.o)
                                                  /home/wenda/opt/gcc-arm-none-eabi/bin/../lib/gcc/arm-none-eabi/5.4.1/../../../../arm-none-eabi/lib/armv7e-m/fpu/libm.a(lib_a-s_round.o)
                                                  /home/wenda/opt/gcc-arm-none-eabi/bin/../lib/gcc/arm-none-eabi/5.4.1/../../../../arm-none-eabi/lib/armv7e-m/fpu/libm.a(lib_a-s_floor.o)
                                                  tensorflow/lite/experimental/micro/examples/micro_speech/preprocessor.o
                                                  tensorflow/lite/experimental/micro/kernels/softmax.o
__aeabi_dcmpeq                                    /home/wenda/opt/gcc-arm-none-eabi/bin/../lib/gcc/arm-none-eabi/5.4.1/armv7e-m/fpu/libgcc.a(_arm_cmpdf2.o)
                                                  /home/wenda/opt/gcc-arm-none-eabi/bin/../lib/gcc/arm-none-eabi/5.4.1/../../../../arm-none-eabi/lib/armv7e-m/fpu/libm.a(lib_a-k_rem_pio2.o)
                                                  /home/wenda/opt/gcc-arm-none-eabi/bin/../lib/gcc/arm-none-eabi/5.4.1/../../../../arm-none-eabi/lib/armv7e-m/fpu/libm.a(lib_a-e_rem_pio2.o)
                                                  tensorflow/lite/kernels/internal/quantization_util.o
__aeabi_dcmpge                                    /home/wenda/opt/gcc-arm-none-eabi/bin/../lib/gcc/arm-none-eabi/5.4.1/armv7e-m/fpu/libgcc.a(_arm_cmpdf2.o)
                                                  /home/wenda/opt/gcc-arm-none-eabi/bin/../lib/gcc/arm-none-eabi/5.4.1/../../../../arm-none-eabi/lib/armv7e-m/fpu/libm.a(lib_a-k_rem_pio2.o)
                                                  tensorflow/lite/kernels/kernel_util.o
__aeabi_dcmpgt                                    /home/wenda/opt/gcc-arm-none-eabi/bin/../lib/gcc/arm-none-eabi/5.4.1/armv7e-m/fpu/libgcc.a(_arm_cmpdf2.o)
                                                  /home/wenda/opt/gcc-arm-none-eabi/bin/../lib/gcc/arm-none-eabi/5.4.1/../../../../arm-none-eabi/lib/armv7e-m/fpu/libm.a(lib_a-e_exp.o)
                                                  /home/wenda/opt/gcc-arm-none-eabi/bin/../lib/gcc/arm-none-eabi/5.4.1/../../../../arm-none-eabi/lib/armv7e-m/fpu/libm.a(lib_a-w_exp.o)
                                                  /home/wenda/opt/gcc-arm-none-eabi/bin/../lib/gcc/arm-none-eabi/5.4.1/../../../../arm-none-eabi/lib/armv7e-m/fpu/libm.a(lib_a-s_floor.o)
                                                  tensorflow/lite/kernels/internal/quantization_util.o
                                                  tensorflow/lite/kernels/kernel_util.o
__aeabi_dcmple                                    /home/wenda/opt/gcc-arm-none-eabi/bin/../lib/gcc/arm-none-eabi/5.4.1/armv7e-m/fpu/libgcc.a(_arm_cmpdf2.o)
__aeabi_dcmplt                                    /home/wenda/opt/gcc-arm-none-eabi/bin/../lib/gcc/arm-none-eabi/5.4.1/armv7e-m/fpu/libgcc.a(_arm_cmpdf2.o)
                                                  /home/wenda/opt/gcc-arm-none-eabi/bin/../lib/gcc/arm-none-eabi/5.4.1/armv7e-m/fpu/libgcc.a(_fixdfdi.o)
                                                  /home/wenda/opt/gcc-arm-none-eabi/bin/../lib/gcc/arm-none-eabi/5.4.1/../../../../arm-none-eabi/lib/armv7e-m/fpu/libm.a(lib_a-e_exp.o)
                                                  /home/wenda/opt/gcc-arm-none-eabi/bin/../lib/gcc/arm-none-eabi/5.4.1/../../../../arm-none-eabi/lib/armv7e-m/fpu/libm.a(lib_a-w_exp.o)
                                                  tensorflow/lite/kernels/internal/quantization_util.o
__aeabi_ddiv                                      /home/wenda/opt/gcc-arm-none-eabi/bin/../lib/gcc/arm-none-eabi/5.4.1/armv7e-m/fpu/libgcc.a(_arm_muldivdf3.o)
                                                  /home/wenda/opt/gcc-arm-none-eabi/bin/../lib/gcc/arm-none-eabi/5.4.1/../../../../arm-none-eabi/lib/armv7e-m/fpu/libm.a(lib_a-e_exp.o)
                                                  tensorflow/lite/kernels/internal/quantization_util.o
                                                  tensorflow/lite/kernels/kernel_util.o
                                                  tensorflow/lite/experimental/micro/kernels/softmax.o
__aeabi_dmul                                      /home/wenda/opt/gcc-arm-none-eabi/bin/../lib/gcc/arm-none-eabi/5.4.1/armv7e-m/fpu/libgcc.a(_arm_muldivdf3.o)
                                                  /home/wenda/opt/gcc-arm-none-eabi/bin/../lib/gcc/arm-none-eabi/5.4.1/armv7e-m/fpu/libgcc.a(_fixunsdfdi.o)
                                                  /home/wenda/opt/gcc-arm-none-eabi/bin/../lib/gcc/arm-none-eabi/5.4.1/../../../../arm-none-eabi/lib/armv7e-m/fpu/libm.a(lib_a-s_scalbn.o)
                                                  /home/wenda/opt/gcc-arm-none-eabi/bin/../lib/gcc/arm-none-eabi/5.4.1/../../../../arm-none-eabi/lib/armv7e-m/fpu/libm.a(lib_a-k_sin.o)
                                                  /home/wenda/opt/gcc-arm-none-eabi/bin/../lib/gcc/arm-none-eabi/5.4.1/../../../../arm-none-eabi/lib/armv7e-m/fpu/libm.a(lib_a-k_rem_pio2.o)
                                                  /home/wenda/opt/gcc-arm-none-eabi/bin/../lib/gcc/arm-none-eabi/5.4.1/../../../../arm-none-eabi/lib/armv7e-m/fpu/libm.a(lib_a-k_cos.o)
                                                  /home/wenda/opt/gcc-arm-none-eabi/bin/../lib/gcc/arm-none-eabi/5.4.1/../../../../arm-none-eabi/lib/armv7e-m/fpu/libm.a(lib_a-e_rem_pio2.o)
                                                  /home/wenda/opt/gcc-arm-none-eabi/bin/../lib/gcc/arm-none-eabi/5.4.1/../../../../arm-none-eabi/lib/armv7e-m/fpu/libm.a(lib_a-e_exp.o)
                                                  /home/wenda/opt/gcc-arm-none-eabi/bin/../lib/gcc/arm-none-eabi/5.4.1/../../../../arm-none-eabi/lib/armv7e-m/fpu/libm.a(lib_a-s_frexp.o)
                                                  tensorflow/lite/experimental/micro/examples/micro_speech/preprocessor.o
                                                  tensorflow/lite/kernels/internal/quantization_util.o
                                                  tensorflow/lite/kernels/kernel_util.o
                                                  tensorflow/lite/experimental/micro/kernels/softmax.o
__aeabi_drsub                                     /home/wenda/opt/gcc-arm-none-eabi/bin/../lib/gcc/arm-none-eabi/5.4.1/armv7e-m/fpu/libgcc.a(_arm_addsubdf3.o)
__aeabi_dsub                                      /home/wenda/opt/gcc-arm-none-eabi/bin/../lib/gcc/arm-none-eabi/5.4.1/armv7e-m/fpu/libgcc.a(_arm_addsubdf3.o)
                                                  /home/wenda/opt/gcc-arm-none-eabi/bin/../lib/gcc/arm-none-eabi/5.4.1/armv7e-m/fpu/libgcc.a(_fixunsdfdi.o)
                                                  /home/wenda/opt/gcc-arm-none-eabi/bin/../lib/gcc/arm-none-eabi/5.4.1/../../../../arm-none-eabi/lib/armv7e-m/fpu/libm.a(lib_a-k_sin.o)
                                                  /home/wenda/opt/gcc-arm-none-eabi/bin/../lib/gcc/arm-none-eabi/5.4.1/../../../../arm-none-eabi/lib/armv7e-m/fpu/libm.a(lib_a-k_rem_pio2.o)
                                                  /home/wenda/opt/gcc-arm-none-eabi/bin/../lib/gcc/arm-none-eabi/5.4.1/../../../../arm-none-eabi/lib/armv7e-m/fpu/libm.a(lib_a-k_cos.o)
                                                  /home/wenda/opt/gcc-arm-none-eabi/bin/../lib/gcc/arm-none-eabi/5.4.1/../../../../arm-none-eabi/lib/armv7e-m/fpu/libm.a(lib_a-e_rem_pio2.o)
                                                  /home/wenda/opt/gcc-arm-none-eabi/bin/../lib/gcc/arm-none-eabi/5.4.1/../../../../arm-none-eabi/lib/armv7e-m/fpu/libm.a(lib_a-e_exp.o)
                                                  /home/wenda/opt/gcc-arm-none-eabi/bin/../lib/gcc/arm-none-eabi/5.4.1/../../../../arm-none-eabi/lib/armv7e-m/fpu/libm.a(lib_a-s_sin.o)
                                                  /home/wenda/opt/gcc-arm-none-eabi/bin/../lib/gcc/arm-none-eabi/5.4.1/../../../../arm-none-eabi/lib/armv7e-m/fpu/libm.a(lib_a-s_cos.o)
                                                  tensorflow/lite/experimental/micro/examples/micro_speech/preprocessor.o
                                                  tensorflow/lite/kernels/kernel_util.o
__aeabi_f2d                                       /home/wenda/opt/gcc-arm-none-eabi/bin/../lib/gcc/arm-none-eabi/5.4.1/armv7e-m/fpu/libgcc.a(_arm_addsubdf3.o)
                                                  /home/wenda/opt/gcc-arm-none-eabi/bin/../lib/gcc/arm-none-eabi/5.4.1/../../../../arm-none-eabi/lib/armv7e-m/fpu/libm.a(lib_a-wf_log.o)
                                                  /home/wenda/opt/gcc-arm-none-eabi/bin/../lib/gcc/arm-none-eabi/5.4.1/../../../../arm-none-eabi/lib/armv7e-m/fpu/libm.a(lib_a-wf_exp.o)
                                                  tensorflow/lite/experimental/micro/examples/micro_speech/preprocessor.o
                                                  tensorflow/lite/kernels/internal/quantization_util.o
                                                  tensorflow/lite/kernels/kernel_util.o
                                                  tensorflow/lite/experimental/micro/kernels/softmax.o
__aeabi_i2d                                       /home/wenda/opt/gcc-arm-none-eabi/bin/../lib/gcc/arm-none-eabi/5.4.1/armv7e-m/fpu/libgcc.a(_arm_addsubdf3.o)
                                                  /home/wenda/opt/gcc-arm-none-eabi/bin/../lib/gcc/arm-none-eabi/5.4.1/../../../../arm-none-eabi/lib/armv7e-m/fpu/libm.a(lib_a-k_rem_pio2.o)
                                                  /home/wenda/opt/gcc-arm-none-eabi/bin/../lib/gcc/arm-none-eabi/5.4.1/../../../../arm-none-eabi/lib/armv7e-m/fpu/libm.a(lib_a-e_rem_pio2.o)
                                                  /home/wenda/opt/gcc-arm-none-eabi/bin/../lib/gcc/arm-none-eabi/5.4.1/../../../../arm-none-eabi/lib/armv7e-m/fpu/libm.a(lib_a-e_exp.o)
                                                  tensorflow/lite/kernels/internal/quantization_util.o
                                                  tensorflow/lite/experimental/micro/kernels/softmax.o
__aeabi_idiv0                                     /home/wenda/opt/gcc-arm-none-eabi/bin/../lib/gcc/arm-none-eabi/5.4.1/armv7e-m/fpu/libgcc.a(_dvmd_tls.o)
__aeabi_l2d                                       /home/wenda/opt/gcc-arm-none-eabi/bin/../lib/gcc/arm-none-eabi/5.4.1/armv7e-m/fpu/libgcc.a(_arm_addsubdf3.o)
                                                  tensorflow/lite/kernels/internal/quantization_util.o
__aeabi_ldiv0                                     /home/wenda/opt/gcc-arm-none-eabi/bin/../lib/gcc/arm-none-eabi/5.4.1/armv7e-m/fpu/libgcc.a(_dvmd_tls.o)
                                                  /home/wenda/opt/gcc-arm-none-eabi/bin/../lib/gcc/arm-none-eabi/5.4.1/armv7e-m/fpu/libgcc.a(_aeabi_ldivmod.o)
__aeabi_ldivmod                                   /home/wenda/opt/gcc-arm-none-eabi/bin/../lib/gcc/arm-none-eabi/5.4.1/armv7e-m/fpu/libgcc.a(_aeabi_ldivmod.o)
                                                  tensorflow/lite/experimental/micro/examples/micro_speech/recognize_commands.o
__aeabi_llsl                                      /home/wenda/opt/gcc-arm-none-eabi/bin/../lib/gcc/arm-none-eabi/5.4.1/armv7e-m/fpu/libgcc.a(_ashldi3.o)
                                                  tensorflow/lite/kernels/internal/quantization_util.o
                                                  tensorflow/lite/experimental/micro/kernels/fully_connected.o
                                                  tensorflow/lite/experimental/micro/kernels/softmax.o
                                                  tensorflow/lite/experimental/micro/kernels/depthwise_conv.o
__aeabi_ui2d                                      /home/wenda/opt/gcc-arm-none-eabi/bin/../lib/gcc/arm-none-eabi/5.4.1/armv7e-m/fpu/libgcc.a(_arm_addsubdf3.o)
                                                  /home/wenda/opt/gcc-arm-none-eabi/bin/../lib/gcc/arm-none-eabi/5.4.1/armv7e-m/fpu/libgcc.a(_fixunsdfdi.o)
__aeabi_ul2d                                      /home/wenda/opt/gcc-arm-none-eabi/bin/../lib/gcc/arm-none-eabi/5.4.1/armv7e-m/fpu/libgcc.a(_arm_addsubdf3.o)
__aeabi_unwind_cpp_pr0                            /home/wenda/opt/gcc-arm-none-eabi/bin/../lib/gcc/arm-none-eabi/5.4.1/armv7e-m/fpu/libgcc.a(unwind-arm.o)
                                                  /home/wenda/opt/gcc-arm-none-eabi/bin/../lib/gcc/arm-none-eabi/5.4.1/armv7e-m/fpu/libgcc.a(pr-support.o)
                                                  tensorflow/lite/experimental/micro/examples/micro_speech/recognize_commands.o
                                                  tensorflow/lite/experimental/micro/examples/micro_speech/preprocessor.o
                                                  tensorflow/lite/experimental/micro/examples/micro_speech/feature_provider.o
                                                  tensorflow/lite/kernels/internal/quantization_util.o
                                                  tensorflow/lite/kernels/kernel_util.o
                                                  tensorflow/lite/core/api/op_resolver.o
                                                  tensorflow/lite/core/api/flatbuffer_conversions.o
                                                  tensorflow/lite/experimental/micro/kernels/fully_connected.o
                                                  tensorflow/lite/experimental/micro/kernels/all_ops_resolver.o
                                                  tensorflow/lite/experimental/micro/kernels/softmax.o
                                                  tensorflow/lite/experimental/micro/kernels/depthwise_conv.o
                                                  tensorflow/lite/experimental/micro/micro_interpreter.o
                                                  tensorflow/lite/experimental/micro/debug_log_numbers.o
                                                  tensorflow/lite/experimental/micro/simple_tensor_allocator.o
                                                  tensorflow/lite/experimental/micro/micro_error_reporter.o
__aeabi_unwind_cpp_pr1                            /home/wenda/opt/gcc-arm-none-eabi/bin/../lib/gcc/arm-none-eabi/5.4.1/armv7e-m/fpu/libgcc.a(unwind-arm.o)
                                                  /home/wenda/opt/gcc-arm-none-eabi/bin/../lib/gcc/arm-none-eabi/5.4.1/armv7e-m/fpu/libgcc.a(pr-support.o)
                                                  machinelearning.o
                                                  tensorflow/lite/experimental/micro/examples/micro_speech/preprocessor.o
                                                  tensorflow/lite/kernels/internal/quantization_util.o
                                                  tensorflow/lite/kernels/kernel_util.o
                                                  tensorflow/lite/core/api/flatbuffer_conversions.o
                                                  tensorflow/lite/core/api/error_reporter.o
                                                  tensorflow/lite/experimental/micro/kernels/softmax.o
                                                  tensorflow/lite/experimental/micro/micro_interpreter.o
__aeabi_unwind_cpp_pr2                            /home/wenda/opt/gcc-arm-none-eabi/bin/../lib/gcc/arm-none-eabi/5.4.1/armv7e-m/fpu/libgcc.a(unwind-arm.o)
__ashldi3                                         /home/wenda/opt/gcc-arm-none-eabi/bin/../lib/gcc/arm-none-eabi/5.4.1/armv7e-m/fpu/libgcc.a(_ashldi3.o)
__bss_end__                                       /home/wenda/opt/gcc-arm-none-eabi/bin/../lib/gcc/arm-none-eabi/5.4.1/../../../../arm-none-eabi/lib/armv7e-m/fpu/crt0.o
__bss_start__                                     /home/wenda/opt/gcc-arm-none-eabi/bin/../lib/gcc/arm-none-eabi/5.4.1/../../../../arm-none-eabi/lib/armv7e-m/fpu/crt0.o
__call_exitprocs                                  /home/wenda/opt/gcc-arm-none-eabi/bin/../lib/gcc/arm-none-eabi/5.4.1/../../../../arm-none-eabi/lib/armv7e-m/fpu/libc_nano.a(lib_a-exit.o)
__cmpdf2                                          /home/wenda/opt/gcc-arm-none-eabi/bin/../lib/gcc/arm-none-eabi/5.4.1/armv7e-m/fpu/libgcc.a(_arm_cmpdf2.o)
__cxa_begin_catch                                 /home/wenda/opt/gcc-arm-none-eabi/bin/../lib/gcc/arm-none-eabi/5.4.1/../../../../arm-none-eabi/lib/armv7e-m/fpu/libstdc++_nano.a(eh_catch.o)
                                                  /home/wenda/opt/gcc-arm-none-eabi/bin/../lib/gcc/arm-none-eabi/5.4.1/../../../../arm-none-eabi/lib/armv7e-m/fpu/libstdc++_nano.a(eh_call.o)
__cxa_begin_cleanup                               /home/wenda/opt/gcc-arm-none-eabi/bin/../lib/gcc/arm-none-eabi/5.4.1/../../../../arm-none-eabi/lib/armv7e-m/fpu/libstdc++_nano.a(eh_arm.o)
                                                  /home/wenda/opt/gcc-arm-none-eabi/bin/../lib/gcc/arm-none-eabi/5.4.1/armv7e-m/fpu/libgcc.a(unwind-arm.o)
                                                  /home/wenda/opt/gcc-arm-none-eabi/bin/../lib/gcc/arm-none-eabi/5.4.1/../../../../arm-none-eabi/lib/armv7e-m/fpu/libstdc++_nano.a(eh_personality.o)
__cxa_call_terminate                              /home/wenda/opt/gcc-arm-none-eabi/bin/../lib/gcc/arm-none-eabi/5.4.1/../../../../arm-none-eabi/lib/armv7e-m/fpu/libstdc++_nano.a(eh_call.o)
                                                  /home/wenda/opt/gcc-arm-none-eabi/bin/../lib/gcc/arm-none-eabi/5.4.1/../../../../arm-none-eabi/lib/armv7e-m/fpu/libstdc++_nano.a(eh_personality.o)
__cxa_call_unexpected                             /home/wenda/opt/gcc-arm-none-eabi/bin/../lib/gcc/arm-none-eabi/5.4.1/../../../../arm-none-eabi/lib/armv7e-m/fpu/libstdc++_nano.a(eh_call.o)
                                                  /home/wenda/opt/gcc-arm-none-eabi/bin/../lib/gcc/arm-none-eabi/5.4.1/armv7e-m/fpu/libgcc.a(unwind-arm.o)
__cxa_deleted_virtual                             /home/wenda/opt/gcc-arm-none-eabi/bin/../lib/gcc/arm-none-eabi/5.4.1/../../../../arm-none-eabi/lib/armv7e-m/fpu/libstdc++_nano.a(pure.o)
__cxa_end_catch                                   /home/wenda/opt/gcc-arm-none-eabi/bin/../lib/gcc/arm-none-eabi/5.4.1/../../../../arm-none-eabi/lib/armv7e-m/fpu/libstdc++_nano.a(eh_catch.o)
__cxa_end_cleanup                                 /home/wenda/opt/gcc-arm-none-eabi/bin/../lib/gcc/arm-none-eabi/5.4.1/../../../../arm-none-eabi/lib/armv7e-m/fpu/libstdc++_nano.a(eh_arm.o)
                                                  machinelearning.o
                                                  tensorflow/lite/experimental/micro/kernels/fully_connected.o
                                                  tensorflow/lite/experimental/micro/kernels/softmax.o
                                                  tensorflow/lite/experimental/micro/kernels/depthwise_conv.o
__cxa_get_exception_ptr                           /home/wenda/opt/gcc-arm-none-eabi/bin/../lib/gcc/arm-none-eabi/5.4.1/../../../../arm-none-eabi/lib/armv7e-m/fpu/libstdc++_nano.a(eh_catch.o)
__cxa_get_globals                                 /home/wenda/opt/gcc-arm-none-eabi/bin/../lib/gcc/arm-none-eabi/5.4.1/../../../../arm-none-eabi/lib/armv7e-m/fpu/libstdc++_nano.a(eh_globals.o)
                                                  /home/wenda/opt/gcc-arm-none-eabi/bin/../lib/gcc/arm-none-eabi/5.4.1/../../../../arm-none-eabi/lib/armv7e-m/fpu/libstdc++_nano.a(eh_catch.o)
                                                  /home/wenda/opt/gcc-arm-none-eabi/bin/../lib/gcc/arm-none-eabi/5.4.1/../../../../arm-none-eabi/lib/armv7e-m/fpu/libstdc++_nano.a(eh_arm.o)
__cxa_get_globals_fast                            /home/wenda/opt/gcc-arm-none-eabi/bin/../lib/gcc/arm-none-eabi/5.4.1/../../../../arm-none-eabi/lib/armv7e-m/fpu/libstdc++_nano.a(eh_globals.o)
                                                  /home/wenda/opt/gcc-arm-none-eabi/bin/../lib/gcc/arm-none-eabi/5.4.1/../../../../arm-none-eabi/lib/armv7e-m/fpu/libstdc++_nano.a(eh_catch.o)
__cxa_pure_virtual                                /home/wenda/opt/gcc-arm-none-eabi/bin/../lib/gcc/arm-none-eabi/5.4.1/../../../../arm-none-eabi/lib/armv7e-m/fpu/libstdc++_nano.a(pure.o)
                                                  /home/wenda/opt/gcc-arm-none-eabi/bin/../lib/gcc/arm-none-eabi/5.4.1/../../../../arm-none-eabi/lib/armv7e-m/fpu/libstdc++_nano.a(eh_exception.o)
__cxa_type_match                                  /home/wenda/opt/gcc-arm-none-eabi/bin/../lib/gcc/arm-none-eabi/5.4.1/../../../../arm-none-eabi/lib/armv7e-m/fpu/libstdc++_nano.a(eh_arm.o)
                                                  /home/wenda/opt/gcc-arm-none-eabi/bin/../lib/gcc/arm-none-eabi/5.4.1/armv7e-m/fpu/libgcc.a(unwind-arm.o)
                                                  /home/wenda/opt/gcc-arm-none-eabi/bin/../lib/gcc/arm-none-eabi/5.4.1/../../../../arm-none-eabi/lib/armv7e-m/fpu/libstdc++_nano.a(eh_personality.o)
__cxxabiv1::__class_type_info::__do_catch(std::type_info const*, void**, unsigned int) const /home/wenda/opt/gcc-arm-none-eabi/bin/../lib/gcc/arm-none-eabi/5.4.1/../../../../arm-none-eabi/lib/armv7e-m/fpu/libstdc++_nano.a(class_type_info.o)
                                                  /home/wenda/opt/gcc-arm-none-eabi/bin/../lib/gcc/arm-none-eabi/5.4.1/../../../../arm-none-eabi/lib/armv7e-m/fpu/libstdc++_nano.a(si_class_type_info.o)
__cxxabiv1::__class_type_info::__do_dyncast(int, __cxxabiv1::__class_type_info::__sub_kind, __cxxabiv1::__class_type_info const*, void const*, __cxxabiv1::__class_type_info const*, void const*, __cxxabiv1::__class_type_info::__dyncast_result&) const /home/wenda/opt/gcc-arm-none-eabi/bin/../lib/gcc/arm-none-eabi/5.4.1/../../../../arm-none-eabi/lib/armv7e-m/fpu/libstdc++_nano.a(class_type_info.o)
__cxxabiv1::__class_type_info::__do_find_public_src(int, void const*, __cxxabiv1::__class_type_info const*, void const*) const /home/wenda/opt/gcc-arm-none-eabi/bin/../lib/gcc/arm-none-eabi/5.4.1/../../../../arm-none-eabi/lib/armv7e-m/fpu/libstdc++_nano.a(class_type_info.o)
__cxxabiv1::__class_type_info::__do_upcast(__cxxabiv1::__class_type_info const*, void const*, __cxxabiv1::__class_type_info::__upcast_result&) const /home/wenda/opt/gcc-arm-none-eabi/bin/../lib/gcc/arm-none-eabi/5.4.1/../../../../arm-none-eabi/lib/armv7e-m/fpu/libstdc++_nano.a(class_type_info.o)
                                                  /home/wenda/opt/gcc-arm-none-eabi/bin/../lib/gcc/arm-none-eabi/5.4.1/../../../../arm-none-eabi/lib/armv7e-m/fpu/libstdc++_nano.a(si_class_type_info.o)
__cxxabiv1::__class_type_info::__do_upcast(__cxxabiv1::__class_type_info const*, void**) const /home/wenda/opt/gcc-arm-none-eabi/bin/../lib/gcc/arm-none-eabi/5.4.1/../../../../arm-none-eabi/lib/armv7e-m/fpu/libstdc++_nano.a(class_type_info.o)
                                                  /home/wenda/opt/gcc-arm-none-eabi/bin/../lib/gcc/arm-none-eabi/5.4.1/../../../../arm-none-eabi/lib/armv7e-m/fpu/libstdc++_nano.a(si_class_type_info.o)
__cxxabiv1::__class_type_info::~__class_type_info() /home/wenda/opt/gcc-arm-none-eabi/bin/../lib/gcc/arm-none-eabi/5.4.1/../../../../arm-none-eabi/lib/armv7e-m/fpu/libstdc++_nano.a(class_type_info.o)
__cxxabiv1::__class_type_info::~__class_type_info() /home/wenda/opt/gcc-arm-none-eabi/bin/../lib/gcc/arm-none-eabi/5.4.1/../../../../arm-none-eabi/lib/armv7e-m/fpu/libstdc++_nano.a(class_type_info.o)
                                                  /home/wenda/opt/gcc-arm-none-eabi/bin/../lib/gcc/arm-none-eabi/5.4.1/../../../../arm-none-eabi/lib/armv7e-m/fpu/libstdc++_nano.a(si_class_type_info.o)
__cxxabiv1::__class_type_info::~__class_type_info() /home/wenda/opt/gcc-arm-none-eabi/bin/../lib/gcc/arm-none-eabi/5.4.1/../../../../arm-none-eabi/lib/armv7e-m/fpu/libstdc++_nano.a(class_type_info.o)
__cxxabiv1::__forced_unwind::~__forced_unwind()   /home/wenda/opt/gcc-arm-none-eabi/bin/../lib/gcc/arm-none-eabi/5.4.1/../../../../arm-none-eabi/lib/armv7e-m/fpu/libstdc++_nano.a(eh_exception.o)
__cxxabiv1::__forced_unwind::~__forced_unwind()   /home/wenda/opt/gcc-arm-none-eabi/bin/../lib/gcc/arm-none-eabi/5.4.1/../../../../arm-none-eabi/lib/armv7e-m/fpu/libstdc++_nano.a(eh_exception.o)
__cxxabiv1::__forced_unwind::~__forced_unwind()   /home/wenda/opt/gcc-arm-none-eabi/bin/../lib/gcc/arm-none-eabi/5.4.1/../../../../arm-none-eabi/lib/armv7e-m/fpu/libstdc++_nano.a(eh_exception.o)
__cxxabiv1::__foreign_exception::~__foreign_exception() /home/wenda/opt/gcc-arm-none-eabi/bin/../lib/gcc/arm-none-eabi/5.4.1/../../../../arm-none-eabi/lib/armv7e-m/fpu/libstdc++_nano.a(eh_exception.o)
__cxxabiv1::__foreign_exception::~__foreign_exception() /home/wenda/opt/gcc-arm-none-eabi/bin/../lib/gcc/arm-none-eabi/5.4.1/../../../../arm-none-eabi/lib/armv7e-m/fpu/libstdc++_nano.a(eh_exception.o)
__cxxabiv1::__foreign_exception::~__foreign_exception() /home/wenda/opt/gcc-arm-none-eabi/bin/../lib/gcc/arm-none-eabi/5.4.1/../../../../arm-none-eabi/lib/armv7e-m/fpu/libstdc++_nano.a(eh_exception.o)
__cxxabiv1::__si_class_type_info::__do_dyncast(int, __cxxabiv1::__class_type_info::__sub_kind, __cxxabiv1::__class_type_info const*, void const*, __cxxabiv1::__class_type_info const*, void const*, __cxxabiv1::__class_type_info::__dyncast_result&) const /home/wenda/opt/gcc-arm-none-eabi/bin/../lib/gcc/arm-none-eabi/5.4.1/../../../../arm-none-eabi/lib/armv7e-m/fpu/libstdc++_nano.a(si_class_type_info.o)
__cxxabiv1::__si_class_type_info::__do_find_public_src(int, void const*, __cxxabiv1::__class_type_info const*, void const*) const /home/wenda/opt/gcc-arm-none-eabi/bin/../lib/gcc/arm-none-eabi/5.4.1/../../../../arm-none-eabi/lib/armv7e-m/fpu/libstdc++_nano.a(si_class_type_info.o)
__cxxabiv1::__si_class_type_info::__do_upcast(__cxxabiv1::__class_type_info const*, void const*, __cxxabiv1::__class_type_info::__upcast_result&) const /home/wenda/opt/gcc-arm-none-eabi/bin/../lib/gcc/arm-none-eabi/5.4.1/../../../../arm-none-eabi/lib/armv7e-m/fpu/libstdc++_nano.a(si_class_type_info.o)
__cxxabiv1::__si_class_type_info::~__si_class_type_info() /home/wenda/opt/gcc-arm-none-eabi/bin/../lib/gcc/arm-none-eabi/5.4.1/../../../../arm-none-eabi/lib/armv7e-m/fpu/libstdc++_nano.a(si_class_type_info.o)
__cxxabiv1::__si_class_type_info::~__si_class_type_info() /home/wenda/opt/gcc-arm-none-eabi/bin/../lib/gcc/arm-none-eabi/5.4.1/../../../../arm-none-eabi/lib/armv7e-m/fpu/libstdc++_nano.a(si_class_type_info.o)
__cxxabiv1::__si_class_type_info::~__si_class_type_info() /home/wenda/opt/gcc-arm-none-eabi/bin/../lib/gcc/arm-none-eabi/5.4.1/../../../../arm-none-eabi/lib/armv7e-m/fpu/libstdc++_nano.a(si_class_type_info.o)
__cxxabiv1::__terminate(void (*)())               /home/wenda/opt/gcc-arm-none-eabi/bin/../lib/gcc/arm-none-eabi/5.4.1/../../../../arm-none-eabi/lib/armv7e-m/fpu/libstdc++_nano.a(eh_terminate.o)
                                                  /home/wenda/opt/gcc-arm-none-eabi/bin/../lib/gcc/arm-none-eabi/5.4.1/../../../../arm-none-eabi/lib/armv7e-m/fpu/libstdc++_nano.a(eh_call.o)
__cxxabiv1::__terminate_handler                   /home/wenda/opt/gcc-arm-none-eabi/bin/../lib/gcc/arm-none-eabi/5.4.1/../../../../arm-none-eabi/lib/armv7e-m/fpu/libstdc++_nano.a(eh_term_handler.o)
                                                  /home/wenda/opt/gcc-arm-none-eabi/bin/../lib/gcc/arm-none-eabi/5.4.1/../../../../arm-none-eabi/lib/armv7e-m/fpu/libstdc++_nano.a(eh_terminate.o)
__cxxabiv1::__unexpected(void (*)())              /home/wenda/opt/gcc-arm-none-eabi/bin/../lib/gcc/arm-none-eabi/5.4.1/../../../../arm-none-eabi/lib/armv7e-m/fpu/libstdc++_nano.a(eh_terminate.o)
                                                  /home/wenda/opt/gcc-arm-none-eabi/bin/../lib/gcc/arm-none-eabi/5.4.1/../../../../arm-none-eabi/lib/armv7e-m/fpu/libstdc++_nano.a(eh_call.o)
__cxxabiv1::__unexpected_handler                  /home/wenda/opt/gcc-arm-none-eabi/bin/../lib/gcc/arm-none-eabi/5.4.1/../../../../arm-none-eabi/lib/armv7e-m/fpu/libstdc++_nano.a(eh_unex_handler.o)
                                                  /home/wenda/opt/gcc-arm-none-eabi/bin/../lib/gcc/arm-none-eabi/5.4.1/../../../../arm-none-eabi/lib/armv7e-m/fpu/libstdc++_nano.a(eh_terminate.o)
__deregister_frame_info                           /home/wenda/opt/gcc-arm-none-eabi/bin/../lib/gcc/arm-none-eabi/5.4.1/armv7e-m/fpu/crtbegin.o
__divdf3                                          /home/wenda/opt/gcc-arm-none-eabi/bin/../lib/gcc/arm-none-eabi/5.4.1/armv7e-m/fpu/libgcc.a(_arm_muldivdf3.o)
__dso_handle                                      /home/wenda/opt/gcc-arm-none-eabi/bin/../lib/gcc/arm-none-eabi/5.4.1/armv7e-m/fpu/crtbegin.o
__eqdf2                                           /home/wenda/opt/gcc-arm-none-eabi/bin/../lib/gcc/arm-none-eabi/5.4.1/armv7e-m/fpu/libgcc.a(_arm_cmpdf2.o)
__errno                                           /home/wenda/opt/gcc-arm-none-eabi/bin/../lib/gcc/arm-none-eabi/5.4.1/../../../../arm-none-eabi/lib/armv7e-m/fpu/libc_nano.a(lib_a-errno.o)
                                                  /home/wenda/opt/gcc-arm-none-eabi/bin/../lib/gcc/arm-none-eabi/5.4.1/../../../../arm-none-eabi/lib/armv7e-m/fpu/libm.a(lib_a-wf_log.o)
                                                  /home/wenda/opt/gcc-arm-none-eabi/bin/../lib/gcc/arm-none-eabi/5.4.1/../../../../arm-none-eabi/lib/armv7e-m/fpu/libm.a(lib_a-wf_exp.o)
                                                  /home/wenda/opt/gcc-arm-none-eabi/bin/../lib/gcc/arm-none-eabi/5.4.1/../../../../arm-none-eabi/lib/armv7e-m/fpu/libm.a(lib_a-w_exp.o)
__exidx_end                                       /home/wenda/opt/gcc-arm-none-eabi/bin/../lib/gcc/arm-none-eabi/5.4.1/armv7e-m/fpu/libgcc.a(unwind-arm.o)
__exidx_start                                     /home/wenda/opt/gcc-arm-none-eabi/bin/../lib/gcc/arm-none-eabi/5.4.1/armv7e-m/fpu/libgcc.a(unwind-arm.o)
__extendsfdf2                                     /home/wenda/opt/gcc-arm-none-eabi/bin/../lib/gcc/arm-none-eabi/5.4.1/armv7e-m/fpu/libgcc.a(_arm_addsubdf3.o)
__fdlib_version                                   /home/wenda/opt/gcc-arm-none-eabi/bin/../lib/gcc/arm-none-eabi/5.4.1/../../../../arm-none-eabi/lib/armv7e-m/fpu/libm.a(lib_a-s_lib_ver.o)
                                                  /home/wenda/opt/gcc-arm-none-eabi/bin/../lib/gcc/arm-none-eabi/5.4.1/../../../../arm-none-eabi/lib/armv7e-m/fpu/libm.a(lib_a-wf_log.o)
                                                  /home/wenda/opt/gcc-arm-none-eabi/bin/../lib/gcc/arm-none-eabi/5.4.1/../../../../arm-none-eabi/lib/armv7e-m/fpu/libm.a(lib_a-wf_exp.o)
                                                  /home/wenda/opt/gcc-arm-none-eabi/bin/../lib/gcc/arm-none-eabi/5.4.1/../../../../arm-none-eabi/lib/armv7e-m/fpu/libm.a(lib_a-w_exp.o)
__fixdfdi                                         /home/wenda/opt/gcc-arm-none-eabi/bin/../lib/gcc/arm-none-eabi/5.4.1/armv7e-m/fpu/libgcc.a(_fixdfdi.o)
__fixdfsi                                         /home/wenda/opt/gcc-arm-none-eabi/bin/../lib/gcc/arm-none-eabi/5.4.1/armv7e-m/fpu/libgcc.a(_arm_fixdfsi.o)
__fixunsdfdi                                      /home/wenda/opt/gcc-arm-none-eabi/bin/../lib/gcc/arm-none-eabi/5.4.1/armv7e-m/fpu/libgcc.a(_fixunsdfdi.o)
__fixunsdfsi                                      /home/wenda/opt/gcc-arm-none-eabi/bin/../lib/gcc/arm-none-eabi/5.4.1/armv7e-m/fpu/libgcc.a(_arm_fixunsdfsi.o)
__floatdidf                                       /home/wenda/opt/gcc-arm-none-eabi/bin/../lib/gcc/arm-none-eabi/5.4.1/armv7e-m/fpu/libgcc.a(_arm_addsubdf3.o)
__floatsidf                                       /home/wenda/opt/gcc-arm-none-eabi/bin/../lib/gcc/arm-none-eabi/5.4.1/armv7e-m/fpu/libgcc.a(_arm_addsubdf3.o)
__floatundidf                                     /home/wenda/opt/gcc-arm-none-eabi/bin/../lib/gcc/arm-none-eabi/5.4.1/armv7e-m/fpu/libgcc.a(_arm_addsubdf3.o)
__floatunsidf                                     /home/wenda/opt/gcc-arm-none-eabi/bin/../lib/gcc/arm-none-eabi/5.4.1/armv7e-m/fpu/libgcc.a(_arm_addsubdf3.o)
__fp_lock_all                                     /home/wenda/opt/gcc-arm-none-eabi/bin/../lib/gcc/arm-none-eabi/5.4.1/../../../../arm-none-eabi/lib/armv7e-m/fpu/libc_nano.a(lib_a-findfp.o)
__fp_unlock_all                                   /home/wenda/opt/gcc-arm-none-eabi/bin/../lib/gcc/arm-none-eabi/5.4.1/../../../../arm-none-eabi/lib/armv7e-m/fpu/libc_nano.a(lib_a-findfp.o)
__gedf2                                           /home/wenda/opt/gcc-arm-none-eabi/bin/../lib/gcc/arm-none-eabi/5.4.1/armv7e-m/fpu/libgcc.a(_arm_cmpdf2.o)
__gnu_Unwind_Backtrace                            /home/wenda/opt/gcc-arm-none-eabi/bin/../lib/gcc/arm-none-eabi/5.4.1/armv7e-m/fpu/libgcc.a(unwind-arm.o)
                                                  /home/wenda/opt/gcc-arm-none-eabi/bin/../lib/gcc/arm-none-eabi/5.4.1/armv7e-m/fpu/libgcc.a(libunwind.o)
__gnu_Unwind_Find_exidx                           /home/wenda/opt/gcc-arm-none-eabi/bin/../lib/gcc/arm-none-eabi/5.4.1/armv7e-m/fpu/libgcc.a(unwind-arm.o)
__gnu_Unwind_ForcedUnwind                         /home/wenda/opt/gcc-arm-none-eabi/bin/../lib/gcc/arm-none-eabi/5.4.1/armv7e-m/fpu/libgcc.a(unwind-arm.o)
                                                  /home/wenda/opt/gcc-arm-none-eabi/bin/../lib/gcc/arm-none-eabi/5.4.1/armv7e-m/fpu/libgcc.a(libunwind.o)
__gnu_Unwind_RaiseException                       /home/wenda/opt/gcc-arm-none-eabi/bin/../lib/gcc/arm-none-eabi/5.4.1/armv7e-m/fpu/libgcc.a(unwind-arm.o)
                                                  /home/wenda/opt/gcc-arm-none-eabi/bin/../lib/gcc/arm-none-eabi/5.4.1/armv7e-m/fpu/libgcc.a(libunwind.o)
__gnu_Unwind_Restore_VFP                          /home/wenda/opt/gcc-arm-none-eabi/bin/../lib/gcc/arm-none-eabi/5.4.1/armv7e-m/fpu/libgcc.a(libunwind.o)
                                                  /home/wenda/opt/gcc-arm-none-eabi/bin/../lib/gcc/arm-none-eabi/5.4.1/armv7e-m/fpu/libgcc.a(unwind-arm.o)
__gnu_Unwind_Restore_VFP_D                        /home/wenda/opt/gcc-arm-none-eabi/bin/../lib/gcc/arm-none-eabi/5.4.1/armv7e-m/fpu/libgcc.a(libunwind.o)
                                                  /home/wenda/opt/gcc-arm-none-eabi/bin/../lib/gcc/arm-none-eabi/5.4.1/armv7e-m/fpu/libgcc.a(unwind-arm.o)
__gnu_Unwind_Restore_VFP_D_16_to_31               /home/wenda/opt/gcc-arm-none-eabi/bin/../lib/gcc/arm-none-eabi/5.4.1/armv7e-m/fpu/libgcc.a(libunwind.o)
                                                  /home/wenda/opt/gcc-arm-none-eabi/bin/../lib/gcc/arm-none-eabi/5.4.1/armv7e-m/fpu/libgcc.a(unwind-arm.o)
__gnu_Unwind_Restore_WMMXC                        /home/wenda/opt/gcc-arm-none-eabi/bin/../lib/gcc/arm-none-eabi/5.4.1/armv7e-m/fpu/libgcc.a(libunwind.o)
                                                  /home/wenda/opt/gcc-arm-none-eabi/bin/../lib/gcc/arm-none-eabi/5.4.1/armv7e-m/fpu/libgcc.a(unwind-arm.o)
__gnu_Unwind_Restore_WMMXD                        /home/wenda/opt/gcc-arm-none-eabi/bin/../lib/gcc/arm-none-eabi/5.4.1/armv7e-m/fpu/libgcc.a(libunwind.o)
                                                  /home/wenda/opt/gcc-arm-none-eabi/bin/../lib/gcc/arm-none-eabi/5.4.1/armv7e-m/fpu/libgcc.a(unwind-arm.o)
__gnu_Unwind_Resume                               /home/wenda/opt/gcc-arm-none-eabi/bin/../lib/gcc/arm-none-eabi/5.4.1/armv7e-m/fpu/libgcc.a(unwind-arm.o)
                                                  /home/wenda/opt/gcc-arm-none-eabi/bin/../lib/gcc/arm-none-eabi/5.4.1/armv7e-m/fpu/libgcc.a(libunwind.o)
__gnu_Unwind_Resume_or_Rethrow                    /home/wenda/opt/gcc-arm-none-eabi/bin/../lib/gcc/arm-none-eabi/5.4.1/armv7e-m/fpu/libgcc.a(unwind-arm.o)
                                                  /home/wenda/opt/gcc-arm-none-eabi/bin/../lib/gcc/arm-none-eabi/5.4.1/armv7e-m/fpu/libgcc.a(libunwind.o)
__gnu_Unwind_Save_VFP                             /home/wenda/opt/gcc-arm-none-eabi/bin/../lib/gcc/arm-none-eabi/5.4.1/armv7e-m/fpu/libgcc.a(libunwind.o)
                                                  /home/wenda/opt/gcc-arm-none-eabi/bin/../lib/gcc/arm-none-eabi/5.4.1/armv7e-m/fpu/libgcc.a(unwind-arm.o)
__gnu_Unwind_Save_VFP_D                           /home/wenda/opt/gcc-arm-none-eabi/bin/../lib/gcc/arm-none-eabi/5.4.1/armv7e-m/fpu/libgcc.a(libunwind.o)
                                                  /home/wenda/opt/gcc-arm-none-eabi/bin/../lib/gcc/arm-none-eabi/5.4.1/armv7e-m/fpu/libgcc.a(unwind-arm.o)
__gnu_Unwind_Save_VFP_D_16_to_31                  /home/wenda/opt/gcc-arm-none-eabi/bin/../lib/gcc/arm-none-eabi/5.4.1/armv7e-m/fpu/libgcc.a(libunwind.o)
                                                  /home/wenda/opt/gcc-arm-none-eabi/bin/../lib/gcc/arm-none-eabi/5.4.1/armv7e-m/fpu/libgcc.a(unwind-arm.o)
__gnu_Unwind_Save_WMMXC                           /home/wenda/opt/gcc-arm-none-eabi/bin/../lib/gcc/arm-none-eabi/5.4.1/armv7e-m/fpu/libgcc.a(libunwind.o)
                                                  /home/wenda/opt/gcc-arm-none-eabi/bin/../lib/gcc/arm-none-eabi/5.4.1/armv7e-m/fpu/libgcc.a(unwind-arm.o)
__gnu_Unwind_Save_WMMXD                           /home/wenda/opt/gcc-arm-none-eabi/bin/../lib/gcc/arm-none-eabi/5.4.1/armv7e-m/fpu/libgcc.a(libunwind.o)
                                                  /home/wenda/opt/gcc-arm-none-eabi/bin/../lib/gcc/arm-none-eabi/5.4.1/armv7e-m/fpu/libgcc.a(unwind-arm.o)
__gnu_end_cleanup                                 /home/wenda/opt/gcc-arm-none-eabi/bin/../lib/gcc/arm-none-eabi/5.4.1/../../../../arm-none-eabi/lib/armv7e-m/fpu/libstdc++_nano.a(eh_arm.o)
__gnu_unwind_execute                              /home/wenda/opt/gcc-arm-none-eabi/bin/../lib/gcc/arm-none-eabi/5.4.1/armv7e-m/fpu/libgcc.a(pr-support.o)
                                                  /home/wenda/opt/gcc-arm-none-eabi/bin/../lib/gcc/arm-none-eabi/5.4.1/armv7e-m/fpu/libgcc.a(unwind-arm.o)
__gnu_unwind_frame                                /home/wenda/opt/gcc-arm-none-eabi/bin/../lib/gcc/arm-none-eabi/5.4.1/armv7e-m/fpu/libgcc.a(pr-support.o)
                                                  /home/wenda/opt/gcc-arm-none-eabi/bin/../lib/gcc/arm-none-eabi/5.4.1/../../../../arm-none-eabi/lib/armv7e-m/fpu/libstdc++_nano.a(eh_personality.o)
__gtdf2                                           /home/wenda/opt/gcc-arm-none-eabi/bin/../lib/gcc/arm-none-eabi/5.4.1/armv7e-m/fpu/libgcc.a(_arm_cmpdf2.o)
__gxx_personality_v0                              /home/wenda/opt/gcc-arm-none-eabi/bin/../lib/gcc/arm-none-eabi/5.4.1/../../../../arm-none-eabi/lib/armv7e-m/fpu/libstdc++_nano.a(eh_personality.o)
                                                  machinelearning.o
                                                  tensorflow/lite/experimental/micro/kernels/fully_connected.o
                                                  tensorflow/lite/experimental/micro/kernels/softmax.o
                                                  tensorflow/lite/experimental/micro/kernels/depthwise_conv.o
__ieee754_exp                                     /home/wenda/opt/gcc-arm-none-eabi/bin/../lib/gcc/arm-none-eabi/5.4.1/../../../../arm-none-eabi/lib/armv7e-m/fpu/libm.a(lib_a-e_exp.o)
                                                  /home/wenda/opt/gcc-arm-none-eabi/bin/../lib/gcc/arm-none-eabi/5.4.1/../../../../arm-none-eabi/lib/armv7e-m/fpu/libm.a(lib_a-w_exp.o)
__ieee754_expf                                    /home/wenda/opt/gcc-arm-none-eabi/bin/../lib/gcc/arm-none-eabi/5.4.1/../../../../arm-none-eabi/lib/armv7e-m/fpu/libm.a(lib_a-ef_exp.o)
                                                  /home/wenda/opt/gcc-arm-none-eabi/bin/../lib/gcc/arm-none-eabi/5.4.1/../../../../arm-none-eabi/lib/armv7e-m/fpu/libm.a(lib_a-wf_exp.o)
__ieee754_logf                                    /home/wenda/opt/gcc-arm-none-eabi/bin/../lib/gcc/arm-none-eabi/5.4.1/../../../../arm-none-eabi/lib/armv7e-m/fpu/libm.a(lib_a-ef_log.o)
                                                  /home/wenda/opt/gcc-arm-none-eabi/bin/../lib/gcc/arm-none-eabi/5.4.1/../../../../arm-none-eabi/lib/armv7e-m/fpu/libm.a(lib_a-wf_log.o)
__ieee754_rem_pio2                                /home/wenda/opt/gcc-arm-none-eabi/bin/../lib/gcc/arm-none-eabi/5.4.1/../../../../arm-none-eabi/lib/armv7e-m/fpu/libm.a(lib_a-e_rem_pio2.o)
                                                  /home/wenda/opt/gcc-arm-none-eabi/bin/../lib/gcc/arm-none-eabi/5.4.1/../../../../arm-none-eabi/lib/armv7e-m/fpu/libm.a(lib_a-s_sin.o)
                                                  /home/wenda/opt/gcc-arm-none-eabi/bin/../lib/gcc/arm-none-eabi/5.4.1/../../../../arm-none-eabi/lib/armv7e-m/fpu/libm.a(lib_a-s_cos.o)
__init_array_end                                  /home/wenda/opt/gcc-arm-none-eabi/bin/../lib/gcc/arm-none-eabi/5.4.1/../../../../arm-none-eabi/lib/armv7e-m/fpu/libc_nano.a(lib_a-init.o)
__init_array_start                                /home/wenda/opt/gcc-arm-none-eabi/bin/../lib/gcc/arm-none-eabi/5.4.1/../../../../arm-none-eabi/lib/armv7e-m/fpu/libc_nano.a(lib_a-init.o)
__kernel_cos                                      /home/wenda/opt/gcc-arm-none-eabi/bin/../lib/gcc/arm-none-eabi/5.4.1/../../../../arm-none-eabi/lib/armv7e-m/fpu/libm.a(lib_a-k_cos.o)
                                                  /home/wenda/opt/gcc-arm-none-eabi/bin/../lib/gcc/arm-none-eabi/5.4.1/../../../../arm-none-eabi/lib/armv7e-m/fpu/libm.a(lib_a-s_sin.o)
                                                  /home/wenda/opt/gcc-arm-none-eabi/bin/../lib/gcc/arm-none-eabi/5.4.1/../../../../arm-none-eabi/lib/armv7e-m/fpu/libm.a(lib_a-s_cos.o)
__kernel_rem_pio2                                 /home/wenda/opt/gcc-arm-none-eabi/bin/../lib/gcc/arm-none-eabi/5.4.1/../../../../arm-none-eabi/lib/armv7e-m/fpu/libm.a(lib_a-k_rem_pio2.o)
                                                  /home/wenda/opt/gcc-arm-none-eabi/bin/../lib/gcc/arm-none-eabi/5.4.1/../../../../arm-none-eabi/lib/armv7e-m/fpu/libm.a(lib_a-e_rem_pio2.o)
__kernel_sin                                      /home/wenda/opt/gcc-arm-none-eabi/bin/../lib/gcc/arm-none-eabi/5.4.1/../../../../arm-none-eabi/lib/armv7e-m/fpu/libm.a(lib_a-k_sin.o)
                                                  /home/wenda/opt/gcc-arm-none-eabi/bin/../lib/gcc/arm-none-eabi/5.4.1/../../../../arm-none-eabi/lib/armv7e-m/fpu/libm.a(lib_a-s_sin.o)
                                                  /home/wenda/opt/gcc-arm-none-eabi/bin/../lib/gcc/arm-none-eabi/5.4.1/../../../../arm-none-eabi/lib/armv7e-m/fpu/libm.a(lib_a-s_cos.o)
__ledf2                                           /home/wenda/opt/gcc-arm-none-eabi/bin/../lib/gcc/arm-none-eabi/5.4.1/armv7e-m/fpu/libgcc.a(_arm_cmpdf2.o)
__libc_fini_array                                 /home/wenda/opt/gcc-arm-none-eabi/bin/../lib/gcc/arm-none-eabi/5.4.1/../../../../arm-none-eabi/lib/armv7e-m/fpu/crt0.o
__libc_init_array                                 /home/wenda/opt/gcc-arm-none-eabi/bin/../lib/gcc/arm-none-eabi/5.4.1/../../../../arm-none-eabi/lib/armv7e-m/fpu/libc_nano.a(lib_a-init.o)
                                                  /home/wenda/opt/gcc-arm-none-eabi/bin/../lib/gcc/arm-none-eabi/5.4.1/../../../../arm-none-eabi/lib/armv7e-m/fpu/crt0.o
__ltdf2                                           /home/wenda/opt/gcc-arm-none-eabi/bin/../lib/gcc/arm-none-eabi/5.4.1/armv7e-m/fpu/libgcc.a(_arm_cmpdf2.o)
__malloc_free_list                                /home/wenda/opt/gcc-arm-none-eabi/bin/../lib/gcc/arm-none-eabi/5.4.1/../../../../arm-none-eabi/lib/armv7e-m/fpu/libc_nano.a(lib_a-nano-mallocr.o)
                                                  /home/wenda/opt/gcc-arm-none-eabi/bin/../lib/gcc/arm-none-eabi/5.4.1/../../../../arm-none-eabi/lib/armv7e-m/fpu/libc_nano.a(lib_a-nano-freer.o)
__malloc_lock                                     /home/wenda/opt/gcc-arm-none-eabi/bin/../lib/gcc/arm-none-eabi/5.4.1/../../../../arm-none-eabi/lib/armv7e-m/fpu/libc_nano.a(lib_a-mlock.o)
                                                  /home/wenda/opt/gcc-arm-none-eabi/bin/../lib/gcc/arm-none-eabi/5.4.1/../../../../arm-none-eabi/lib/armv7e-m/fpu/libc_nano.a(lib_a-nano-mallocr.o)
                                                  /home/wenda/opt/gcc-arm-none-eabi/bin/../lib/gcc/arm-none-eabi/5.4.1/../../../../arm-none-eabi/lib/armv7e-m/fpu/libc_nano.a(lib_a-nano-freer.o)
__malloc_sbrk_start                               /home/wenda/opt/gcc-arm-none-eabi/bin/../lib/gcc/arm-none-eabi/5.4.1/../../../../arm-none-eabi/lib/armv7e-m/fpu/libc_nano.a(lib_a-nano-mallocr.o)
__malloc_unlock                                   /home/wenda/opt/gcc-arm-none-eabi/bin/../lib/gcc/arm-none-eabi/5.4.1/../../../../arm-none-eabi/lib/armv7e-m/fpu/libc_nano.a(lib_a-mlock.o)
                                                  /home/wenda/opt/gcc-arm-none-eabi/bin/../lib/gcc/arm-none-eabi/5.4.1/../../../../arm-none-eabi/lib/armv7e-m/fpu/libc_nano.a(lib_a-nano-mallocr.o)
                                                  /home/wenda/opt/gcc-arm-none-eabi/bin/../lib/gcc/arm-none-eabi/5.4.1/../../../../arm-none-eabi/lib/armv7e-m/fpu/libc_nano.a(lib_a-nano-freer.o)
__muldf3                                          /home/wenda/opt/gcc-arm-none-eabi/bin/../lib/gcc/arm-none-eabi/5.4.1/armv7e-m/fpu/libgcc.a(_arm_muldivdf3.o)
__nedf2                                           /home/wenda/opt/gcc-arm-none-eabi/bin/../lib/gcc/arm-none-eabi/5.4.1/armv7e-m/fpu/libgcc.a(_arm_cmpdf2.o)
__preinit_array_end                               /home/wenda/opt/gcc-arm-none-eabi/bin/../lib/gcc/arm-none-eabi/5.4.1/../../../../arm-none-eabi/lib/armv7e-m/fpu/libc_nano.a(lib_a-init.o)
__preinit_array_start                             /home/wenda/opt/gcc-arm-none-eabi/bin/../lib/gcc/arm-none-eabi/5.4.1/../../../../arm-none-eabi/lib/armv7e-m/fpu/libc_nano.a(lib_a-init.o)
__register_frame_info                             /home/wenda/opt/gcc-arm-none-eabi/bin/../lib/gcc/arm-none-eabi/5.4.1/armv7e-m/fpu/crtbegin.o
__restore_core_regs                               /home/wenda/opt/gcc-arm-none-eabi/bin/../lib/gcc/arm-none-eabi/5.4.1/armv7e-m/fpu/libgcc.a(libunwind.o)
__sclose                                          /home/wenda/opt/gcc-arm-none-eabi/bin/../lib/gcc/arm-none-eabi/5.4.1/../../../../arm-none-eabi/lib/armv7e-m/fpu/libc_nano.a(lib_a-stdio.o)
                                                  /home/wenda/opt/gcc-arm-none-eabi/bin/../lib/gcc/arm-none-eabi/5.4.1/../../../../arm-none-eabi/lib/armv7e-m/fpu/libc_nano.a(lib_a-findfp.o)
__seofread                                        /home/wenda/opt/gcc-arm-none-eabi/bin/../lib/gcc/arm-none-eabi/5.4.1/../../../../arm-none-eabi/lib/armv7e-m/fpu/libc_nano.a(lib_a-stdio.o)
__sf_fake_stderr                                  /home/wenda/opt/gcc-arm-none-eabi/bin/../lib/gcc/arm-none-eabi/5.4.1/../../../../arm-none-eabi/lib/armv7e-m/fpu/libc_nano.a(lib_a-findfp.o)
                                                  /home/wenda/opt/gcc-arm-none-eabi/bin/../lib/gcc/arm-none-eabi/5.4.1/../../../../arm-none-eabi/lib/armv7e-m/fpu/libc_nano.a(lib_a-nano-vfprintf.o)
                                                  /home/wenda/opt/gcc-arm-none-eabi/bin/../lib/gcc/arm-none-eabi/5.4.1/../../../../arm-none-eabi/lib/armv7e-m/fpu/libc_nano.a(lib_a-fflush.o)
                                                  /home/wenda/opt/gcc-arm-none-eabi/bin/../lib/gcc/arm-none-eabi/5.4.1/../../../../arm-none-eabi/lib/armv7e-m/fpu/libc_nano.a(lib_a-wsetup.o)
                                                  /home/wenda/opt/gcc-arm-none-eabi/bin/../lib/gcc/arm-none-eabi/5.4.1/../../../../arm-none-eabi/lib/armv7e-m/fpu/libc_nano.a(lib_a-wbuf.o)
                                                  /home/wenda/opt/gcc-arm-none-eabi/bin/../lib/gcc/arm-none-eabi/5.4.1/../../../../arm-none-eabi/lib/armv7e-m/fpu/libc_nano.a(lib_a-puts.o)
                                                  /home/wenda/opt/gcc-arm-none-eabi/bin/../lib/gcc/arm-none-eabi/5.4.1/../../../../arm-none-eabi/lib/armv7e-m/fpu/libc_nano.a(lib_a-impure.o)
                                                  /home/wenda/opt/gcc-arm-none-eabi/bin/../lib/gcc/arm-none-eabi/5.4.1/../../../../arm-none-eabi/lib/armv7e-m/fpu/libc_nano.a(lib_a-fputs.o)
__sf_fake_stdin                                   /home/wenda/opt/gcc-arm-none-eabi/bin/../lib/gcc/arm-none-eabi/5.4.1/../../../../arm-none-eabi/lib/armv7e-m/fpu/libc_nano.a(lib_a-findfp.o)
                                                  /home/wenda/opt/gcc-arm-none-eabi/bin/../lib/gcc/arm-none-eabi/5.4.1/../../../../arm-none-eabi/lib/armv7e-m/fpu/libc_nano.a(lib_a-nano-vfprintf.o)
                                                  /home/wenda/opt/gcc-arm-none-eabi/bin/../lib/gcc/arm-none-eabi/5.4.1/../../../../arm-none-eabi/lib/armv7e-m/fpu/libc_nano.a(lib_a-fflush.o)
                                                  /home/wenda/opt/gcc-arm-none-eabi/bin/../lib/gcc/arm-none-eabi/5.4.1/../../../../arm-none-eabi/lib/armv7e-m/fpu/libc_nano.a(lib_a-wsetup.o)
                                                  /home/wenda/opt/gcc-arm-none-eabi/bin/../lib/gcc/arm-none-eabi/5.4.1/../../../../arm-none-eabi/lib/armv7e-m/fpu/libc_nano.a(lib_a-wbuf.o)
                                                  /home/wenda/opt/gcc-arm-none-eabi/bin/../lib/gcc/arm-none-eabi/5.4.1/../../../../arm-none-eabi/lib/armv7e-m/fpu/libc_nano.a(lib_a-puts.o)
                                                  /home/wenda/opt/gcc-arm-none-eabi/bin/../lib/gcc/arm-none-eabi/5.4.1/../../../../arm-none-eabi/lib/armv7e-m/fpu/libc_nano.a(lib_a-impure.o)
                                                  /home/wenda/opt/gcc-arm-none-eabi/bin/../lib/gcc/arm-none-eabi/5.4.1/../../../../arm-none-eabi/lib/armv7e-m/fpu/libc_nano.a(lib_a-fputs.o)
__sf_fake_stdout                                  /home/wenda/opt/gcc-arm-none-eabi/bin/../lib/gcc/arm-none-eabi/5.4.1/../../../../arm-none-eabi/lib/armv7e-m/fpu/libc_nano.a(lib_a-findfp.o)
                                                  /home/wenda/opt/gcc-arm-none-eabi/bin/../lib/gcc/arm-none-eabi/5.4.1/../../../../arm-none-eabi/lib/armv7e-m/fpu/libc_nano.a(lib_a-nano-vfprintf.o)
                                                  /home/wenda/opt/gcc-arm-none-eabi/bin/../lib/gcc/arm-none-eabi/5.4.1/../../../../arm-none-eabi/lib/armv7e-m/fpu/libc_nano.a(lib_a-fflush.o)
                                                  /home/wenda/opt/gcc-arm-none-eabi/bin/../lib/gcc/arm-none-eabi/5.4.1/../../../../arm-none-eabi/lib/armv7e-m/fpu/libc_nano.a(lib_a-wsetup.o)
                                                  /home/wenda/opt/gcc-arm-none-eabi/bin/../lib/gcc/arm-none-eabi/5.4.1/../../../../arm-none-eabi/lib/armv7e-m/fpu/libc_nano.a(lib_a-wbuf.o)
                                                  /home/wenda/opt/gcc-arm-none-eabi/bin/../lib/gcc/arm-none-eabi/5.4.1/../../../../arm-none-eabi/lib/armv7e-m/fpu/libc_nano.a(lib_a-puts.o)
                                                  /home/wenda/opt/gcc-arm-none-eabi/bin/../lib/gcc/arm-none-eabi/5.4.1/../../../../arm-none-eabi/lib/armv7e-m/fpu/libc_nano.a(lib_a-impure.o)
                                                  /home/wenda/opt/gcc-arm-none-eabi/bin/../lib/gcc/arm-none-eabi/5.4.1/../../../../arm-none-eabi/lib/armv7e-m/fpu/libc_nano.a(lib_a-fputs.o)
__sflush_r                                        /home/wenda/opt/gcc-arm-none-eabi/bin/../lib/gcc/arm-none-eabi/5.4.1/../../../../arm-none-eabi/lib/armv7e-m/fpu/libc_nano.a(lib_a-fflush.o)
__sfmoreglue                                      /home/wenda/opt/gcc-arm-none-eabi/bin/../lib/gcc/arm-none-eabi/5.4.1/../../../../arm-none-eabi/lib/armv7e-m/fpu/libc_nano.a(lib_a-findfp.o)
__sfp                                             /home/wenda/opt/gcc-arm-none-eabi/bin/../lib/gcc/arm-none-eabi/5.4.1/../../../../arm-none-eabi/lib/armv7e-m/fpu/libc_nano.a(lib_a-findfp.o)
__sfp_lock_acquire                                /home/wenda/opt/gcc-arm-none-eabi/bin/../lib/gcc/arm-none-eabi/5.4.1/../../../../arm-none-eabi/lib/armv7e-m/fpu/libc_nano.a(lib_a-findfp.o)
__sfp_lock_release                                /home/wenda/opt/gcc-arm-none-eabi/bin/../lib/gcc/arm-none-eabi/5.4.1/../../../../arm-none-eabi/lib/armv7e-m/fpu/libc_nano.a(lib_a-findfp.o)
__sfputs_r                                        /home/wenda/opt/gcc-arm-none-eabi/bin/../lib/gcc/arm-none-eabi/5.4.1/../../../../arm-none-eabi/lib/armv7e-m/fpu/libc_nano.a(lib_a-nano-vfprintf.o)
__sfvwrite_r                                      /home/wenda/opt/gcc-arm-none-eabi/bin/../lib/gcc/arm-none-eabi/5.4.1/../../../../arm-none-eabi/lib/armv7e-m/fpu/libc_nano.a(lib_a-fvwrite.o)
                                                  /home/wenda/opt/gcc-arm-none-eabi/bin/../lib/gcc/arm-none-eabi/5.4.1/../../../../arm-none-eabi/lib/armv7e-m/fpu/libc_nano.a(lib_a-nano-vfprintf.o)
__sigtramp                                        /home/wenda/opt/gcc-arm-none-eabi/bin/../lib/gcc/arm-none-eabi/5.4.1/../../../../arm-none-eabi/lib/armv7e-m/fpu/libc_nano.a(lib_a-signal.o)
__sigtramp_r                                      /home/wenda/opt/gcc-arm-none-eabi/bin/../lib/gcc/arm-none-eabi/5.4.1/../../../../arm-none-eabi/lib/armv7e-m/fpu/libc_nano.a(lib_a-signal.o)
__sinit                                           /home/wenda/opt/gcc-arm-none-eabi/bin/../lib/gcc/arm-none-eabi/5.4.1/../../../../arm-none-eabi/lib/armv7e-m/fpu/libc_nano.a(lib_a-findfp.o)
                                                  /home/wenda/opt/gcc-arm-none-eabi/bin/../lib/gcc/arm-none-eabi/5.4.1/../../../../arm-none-eabi/lib/armv7e-m/fpu/libc_nano.a(lib_a-nano-vfprintf.o)
                                                  /home/wenda/opt/gcc-arm-none-eabi/bin/../lib/gcc/arm-none-eabi/5.4.1/../../../../arm-none-eabi/lib/armv7e-m/fpu/libc_nano.a(lib_a-fflush.o)
                                                  /home/wenda/opt/gcc-arm-none-eabi/bin/../lib/gcc/arm-none-eabi/5.4.1/../../../../arm-none-eabi/lib/armv7e-m/fpu/libc_nano.a(lib_a-wsetup.o)
                                                  /home/wenda/opt/gcc-arm-none-eabi/bin/../lib/gcc/arm-none-eabi/5.4.1/../../../../arm-none-eabi/lib/armv7e-m/fpu/libc_nano.a(lib_a-wbuf.o)
                                                  /home/wenda/opt/gcc-arm-none-eabi/bin/../lib/gcc/arm-none-eabi/5.4.1/../../../../arm-none-eabi/lib/armv7e-m/fpu/libc_nano.a(lib_a-puts.o)
                                                  /home/wenda/opt/gcc-arm-none-eabi/bin/../lib/gcc/arm-none-eabi/5.4.1/../../../../arm-none-eabi/lib/armv7e-m/fpu/libc_nano.a(lib_a-printf.o)
                                                  /home/wenda/opt/gcc-arm-none-eabi/bin/../lib/gcc/arm-none-eabi/5.4.1/../../../../arm-none-eabi/lib/armv7e-m/fpu/libc_nano.a(lib_a-fputs.o)
__sinit_lock_acquire                              /home/wenda/opt/gcc-arm-none-eabi/bin/../lib/gcc/arm-none-eabi/5.4.1/../../../../arm-none-eabi/lib/armv7e-m/fpu/libc_nano.a(lib_a-findfp.o)
__sinit_lock_release                              /home/wenda/opt/gcc-arm-none-eabi/bin/../lib/gcc/arm-none-eabi/5.4.1/../../../../arm-none-eabi/lib/armv7e-m/fpu/libc_nano.a(lib_a-findfp.o)
__smakebuf_r                                      /home/wenda/opt/gcc-arm-none-eabi/bin/../lib/gcc/arm-none-eabi/5.4.1/../../../../arm-none-eabi/lib/armv7e-m/fpu/libc_nano.a(lib_a-makebuf.o)
                                                  /home/wenda/opt/gcc-arm-none-eabi/bin/../lib/gcc/arm-none-eabi/5.4.1/../../../../arm-none-eabi/lib/armv7e-m/fpu/libc_nano.a(lib_a-wsetup.o)
__sprint_r                                        /home/wenda/opt/gcc-arm-none-eabi/bin/../lib/gcc/arm-none-eabi/5.4.1/../../../../arm-none-eabi/lib/armv7e-m/fpu/libc_nano.a(lib_a-nano-vfprintf.o)
__sread                                           /home/wenda/opt/gcc-arm-none-eabi/bin/../lib/gcc/arm-none-eabi/5.4.1/../../../../arm-none-eabi/lib/armv7e-m/fpu/libc_nano.a(lib_a-stdio.o)
                                                  /home/wenda/opt/gcc-arm-none-eabi/bin/../lib/gcc/arm-none-eabi/5.4.1/../../../../arm-none-eabi/lib/armv7e-m/fpu/libc_nano.a(lib_a-findfp.o)
__sseek                                           /home/wenda/opt/gcc-arm-none-eabi/bin/../lib/gcc/arm-none-eabi/5.4.1/../../../../arm-none-eabi/lib/armv7e-m/fpu/libc_nano.a(lib_a-stdio.o)
                                                  /home/wenda/opt/gcc-arm-none-eabi/bin/../lib/gcc/arm-none-eabi/5.4.1/../../../../arm-none-eabi/lib/armv7e-m/fpu/libc_nano.a(lib_a-findfp.o)
__stack                                           /home/wenda/opt/gcc-arm-none-eabi/bin/../lib/gcc/arm-none-eabi/5.4.1/../../../../arm-none-eabi/lib/armv7e-m/fpu/crt0.o
__subdf3                                          /home/wenda/opt/gcc-arm-none-eabi/bin/../lib/gcc/arm-none-eabi/5.4.1/armv7e-m/fpu/libgcc.a(_arm_addsubdf3.o)
__swbuf                                           /home/wenda/opt/gcc-arm-none-eabi/bin/../lib/gcc/arm-none-eabi/5.4.1/../../../../arm-none-eabi/lib/armv7e-m/fpu/libc_nano.a(lib_a-wbuf.o)
__swbuf_r                                         /home/wenda/opt/gcc-arm-none-eabi/bin/../lib/gcc/arm-none-eabi/5.4.1/../../../../arm-none-eabi/lib/armv7e-m/fpu/libc_nano.a(lib_a-wbuf.o)
                                                  /home/wenda/opt/gcc-arm-none-eabi/bin/../lib/gcc/arm-none-eabi/5.4.1/../../../../arm-none-eabi/lib/armv7e-m/fpu/libc_nano.a(lib_a-nano-vfprintf.o)
                                                  /home/wenda/opt/gcc-arm-none-eabi/bin/../lib/gcc/arm-none-eabi/5.4.1/../../../../arm-none-eabi/lib/armv7e-m/fpu/libc_nano.a(lib_a-puts.o)
                                                  /home/wenda/opt/gcc-arm-none-eabi/bin/../lib/gcc/arm-none-eabi/5.4.1/../../../../arm-none-eabi/lib/armv7e-m/fpu/libc_nano.a(lib_a-fputs.o)
__swhatbuf_r                                      /home/wenda/opt/gcc-arm-none-eabi/bin/../lib/gcc/arm-none-eabi/5.4.1/../../../../arm-none-eabi/lib/armv7e-m/fpu/libc_nano.a(lib_a-makebuf.o)
__swrite                                          /home/wenda/opt/gcc-arm-none-eabi/bin/../lib/gcc/arm-none-eabi/5.4.1/../../../../arm-none-eabi/lib/armv7e-m/fpu/libc_nano.a(lib_a-stdio.o)
                                                  /home/wenda/opt/gcc-arm-none-eabi/bin/../lib/gcc/arm-none-eabi/5.4.1/../../../../arm-none-eabi/lib/armv7e-m/fpu/libc_nano.a(lib_a-findfp.o)
__swsetup_r                                       /home/wenda/opt/gcc-arm-none-eabi/bin/../lib/gcc/arm-none-eabi/5.4.1/../../../../arm-none-eabi/lib/armv7e-m/fpu/libc_nano.a(lib_a-wsetup.o)
                                                  /home/wenda/opt/gcc-arm-none-eabi/bin/../lib/gcc/arm-none-eabi/5.4.1/../../../../arm-none-eabi/lib/armv7e-m/fpu/libc_nano.a(lib_a-fvwrite.o)
                                                  /home/wenda/opt/gcc-arm-none-eabi/bin/../lib/gcc/arm-none-eabi/5.4.1/../../../../arm-none-eabi/lib/armv7e-m/fpu/libc_nano.a(lib_a-nano-vfprintf.o)
                                                  /home/wenda/opt/gcc-arm-none-eabi/bin/../lib/gcc/arm-none-eabi/5.4.1/../../../../arm-none-eabi/lib/armv7e-m/fpu/libc_nano.a(lib_a-wbuf.o)
                                                  /home/wenda/opt/gcc-arm-none-eabi/bin/../lib/gcc/arm-none-eabi/5.4.1/../../../../arm-none-eabi/lib/armv7e-m/fpu/libc_nano.a(lib_a-puts.o)
                                                  /home/wenda/opt/gcc-arm-none-eabi/bin/../lib/gcc/arm-none-eabi/5.4.1/../../../../arm-none-eabi/lib/armv7e-m/fpu/libc_nano.a(lib_a-fputs.o)
__truncdfsf2                                      /home/wenda/opt/gcc-arm-none-eabi/bin/../lib/gcc/arm-none-eabi/5.4.1/armv7e-m/fpu/libgcc.a(_arm_truncdfsf2.o)
__udivmoddi4                                      /home/wenda/opt/gcc-arm-none-eabi/bin/../lib/gcc/arm-none-eabi/5.4.1/armv7e-m/fpu/libgcc.a(_udivmoddi4.o)
                                                  /home/wenda/opt/gcc-arm-none-eabi/bin/../lib/gcc/arm-none-eabi/5.4.1/armv7e-m/fpu/libgcc.a(_aeabi_ldivmod.o)
_cleanup                                          /home/wenda/opt/gcc-arm-none-eabi/bin/../lib/gcc/arm-none-eabi/5.4.1/../../../../arm-none-eabi/lib/armv7e-m/fpu/libc_nano.a(lib_a-findfp.o)
_cleanup_r                                        /home/wenda/opt/gcc-arm-none-eabi/bin/../lib/gcc/arm-none-eabi/5.4.1/../../../../arm-none-eabi/lib/armv7e-m/fpu/libc_nano.a(lib_a-findfp.o)
                                                  /home/wenda/opt/gcc-arm-none-eabi/bin/../lib/gcc/arm-none-eabi/5.4.1/../../../../arm-none-eabi/lib/armv7e-m/fpu/libc_nano.a(lib_a-makebuf.o)
_close                                            /home/wenda/opt/gcc-arm-none-eabi/bin/../lib/gcc/arm-none-eabi/5.4.1/../../../../arm-none-eabi/lib/armv7e-m/fpu/libnosys.a(close.o)
                                                  /home/wenda/opt/gcc-arm-none-eabi/bin/../lib/gcc/arm-none-eabi/5.4.1/../../../../arm-none-eabi/lib/armv7e-m/fpu/libc_nano.a(lib_a-closer.o)
_close_r                                          /home/wenda/opt/gcc-arm-none-eabi/bin/../lib/gcc/arm-none-eabi/5.4.1/../../../../arm-none-eabi/lib/armv7e-m/fpu/libc_nano.a(lib_a-closer.o)
                                                  /home/wenda/opt/gcc-arm-none-eabi/bin/../lib/gcc/arm-none-eabi/5.4.1/../../../../arm-none-eabi/lib/armv7e-m/fpu/libc_nano.a(lib_a-stdio.o)
_exit                                             /home/wenda/opt/gcc-arm-none-eabi/bin/../lib/gcc/arm-none-eabi/5.4.1/../../../../arm-none-eabi/lib/armv7e-m/fpu/libnosys.a(_exit.o)
                                                  /home/wenda/opt/gcc-arm-none-eabi/bin/../lib/gcc/arm-none-eabi/5.4.1/../../../../arm-none-eabi/lib/armv7e-m/fpu/libc_nano.a(lib_a-exit.o)
                                                  /home/wenda/opt/gcc-arm-none-eabi/bin/../lib/gcc/arm-none-eabi/5.4.1/../../../../arm-none-eabi/lib/armv7e-m/fpu/libc_nano.a(lib_a-abort.o)
_fflush_r                                         /home/wenda/opt/gcc-arm-none-eabi/bin/../lib/gcc/arm-none-eabi/5.4.1/../../../../arm-none-eabi/lib/armv7e-m/fpu/libc_nano.a(lib_a-fflush.o)
                                                  /home/wenda/opt/gcc-arm-none-eabi/bin/../lib/gcc/arm-none-eabi/5.4.1/../../../../arm-none-eabi/lib/armv7e-m/fpu/libc_nano.a(lib_a-fvwrite.o)
                                                  /home/wenda/opt/gcc-arm-none-eabi/bin/../lib/gcc/arm-none-eabi/5.4.1/../../../../arm-none-eabi/lib/armv7e-m/fpu/libc_nano.a(lib_a-findfp.o)
                                                  /home/wenda/opt/gcc-arm-none-eabi/bin/../lib/gcc/arm-none-eabi/5.4.1/../../../../arm-none-eabi/lib/armv7e-m/fpu/libc_nano.a(lib_a-wbuf.o)
_fini                                             /home/wenda/opt/gcc-arm-none-eabi/bin/../lib/gcc/arm-none-eabi/5.4.1/armv7e-m/fpu/crti.o
_fputs_r                                          /home/wenda/opt/gcc-arm-none-eabi/bin/../lib/gcc/arm-none-eabi/5.4.1/../../../../arm-none-eabi/lib/armv7e-m/fpu/libc_nano.a(lib_a-fputs.o)
_free_r                                           /home/wenda/opt/gcc-arm-none-eabi/bin/../lib/gcc/arm-none-eabi/5.4.1/../../../../arm-none-eabi/lib/armv7e-m/fpu/libc_nano.a(lib_a-nano-freer.o)
                                                  /home/wenda/opt/gcc-arm-none-eabi/bin/../lib/gcc/arm-none-eabi/5.4.1/../../../../arm-none-eabi/lib/armv7e-m/fpu/libc_nano.a(lib_a-fvwrite.o)
                                                  /home/wenda/opt/gcc-arm-none-eabi/bin/../lib/gcc/arm-none-eabi/5.4.1/../../../../arm-none-eabi/lib/armv7e-m/fpu/libc_nano.a(lib_a-reent.o)
                                                  /home/wenda/opt/gcc-arm-none-eabi/bin/../lib/gcc/arm-none-eabi/5.4.1/../../../../arm-none-eabi/lib/armv7e-m/fpu/libc_nano.a(lib_a-nano-reallocr.o)
                                                  /home/wenda/opt/gcc-arm-none-eabi/bin/../lib/gcc/arm-none-eabi/5.4.1/../../../../arm-none-eabi/lib/armv7e-m/fpu/libc_nano.a(lib_a-fflush.o)
                                                  /home/wenda/opt/gcc-arm-none-eabi/bin/../lib/gcc/arm-none-eabi/5.4.1/../../../../arm-none-eabi/lib/armv7e-m/fpu/libc_nano.a(lib_a-wsetup.o)
                                                  /home/wenda/opt/gcc-arm-none-eabi/bin/../lib/gcc/arm-none-eabi/5.4.1/../../../../arm-none-eabi/lib/armv7e-m/fpu/libc_nano.a(lib_a-malloc.o)
_fstat                                            /home/wenda/opt/gcc-arm-none-eabi/bin/../lib/gcc/arm-none-eabi/5.4.1/../../../../arm-none-eabi/lib/armv7e-m/fpu/libnosys.a(fstat.o)
                                                  /home/wenda/opt/gcc-arm-none-eabi/bin/../lib/gcc/arm-none-eabi/5.4.1/../../../../arm-none-eabi/lib/armv7e-m/fpu/libc_nano.a(lib_a-fstatr.o)
_fstat_r                                          /home/wenda/opt/gcc-arm-none-eabi/bin/../lib/gcc/arm-none-eabi/5.4.1/../../../../arm-none-eabi/lib/armv7e-m/fpu/libc_nano.a(lib_a-fstatr.o)
                                                  /home/wenda/opt/gcc-arm-none-eabi/bin/../lib/gcc/arm-none-eabi/5.4.1/../../../../arm-none-eabi/lib/armv7e-m/fpu/libc_nano.a(lib_a-makebuf.o)
_fwalk                                            /home/wenda/opt/gcc-arm-none-eabi/bin/../lib/gcc/arm-none-eabi/5.4.1/../../../../arm-none-eabi/lib/armv7e-m/fpu/libc_nano.a(lib_a-fwalk.o)
                                                  /home/wenda/opt/gcc-arm-none-eabi/bin/../lib/gcc/arm-none-eabi/5.4.1/../../../../arm-none-eabi/lib/armv7e-m/fpu/libc_nano.a(lib_a-findfp.o)
_fwalk_reent                                      /home/wenda/opt/gcc-arm-none-eabi/bin/../lib/gcc/arm-none-eabi/5.4.1/../../../../arm-none-eabi/lib/armv7e-m/fpu/libc_nano.a(lib_a-fwalk.o)
                                                  /home/wenda/opt/gcc-arm-none-eabi/bin/../lib/gcc/arm-none-eabi/5.4.1/../../../../arm-none-eabi/lib/armv7e-m/fpu/libc_nano.a(lib_a-findfp.o)
                                                  /home/wenda/opt/gcc-arm-none-eabi/bin/../lib/gcc/arm-none-eabi/5.4.1/../../../../arm-none-eabi/lib/armv7e-m/fpu/libc_nano.a(lib_a-fflush.o)
_getpid                                           /home/wenda/opt/gcc-arm-none-eabi/bin/../lib/gcc/arm-none-eabi/5.4.1/../../../../arm-none-eabi/lib/armv7e-m/fpu/libnosys.a(getpid.o)
                                                  /home/wenda/opt/gcc-arm-none-eabi/bin/../lib/gcc/arm-none-eabi/5.4.1/../../../../arm-none-eabi/lib/armv7e-m/fpu/libc_nano.a(lib_a-signalr.o)
_getpid_r                                         /home/wenda/opt/gcc-arm-none-eabi/bin/../lib/gcc/arm-none-eabi/5.4.1/../../../../arm-none-eabi/lib/armv7e-m/fpu/libc_nano.a(lib_a-signalr.o)
                                                  /home/wenda/opt/gcc-arm-none-eabi/bin/../lib/gcc/arm-none-eabi/5.4.1/../../../../arm-none-eabi/lib/armv7e-m/fpu/libc_nano.a(lib_a-signal.o)
_global_impure_ptr                                /home/wenda/opt/gcc-arm-none-eabi/bin/../lib/gcc/arm-none-eabi/5.4.1/../../../../arm-none-eabi/lib/armv7e-m/fpu/libc_nano.a(lib_a-impure.o)
                                                  /home/wenda/opt/gcc-arm-none-eabi/bin/../lib/gcc/arm-none-eabi/5.4.1/../../../../arm-none-eabi/lib/armv7e-m/fpu/libc_nano.a(lib_a-findfp.o)
                                                  /home/wenda/opt/gcc-arm-none-eabi/bin/../lib/gcc/arm-none-eabi/5.4.1/../../../../arm-none-eabi/lib/armv7e-m/fpu/libc_nano.a(lib_a-fflush.o)
                                                  /home/wenda/opt/gcc-arm-none-eabi/bin/../lib/gcc/arm-none-eabi/5.4.1/../../../../arm-none-eabi/lib/armv7e-m/fpu/libc_nano.a(lib_a-exit.o)
_impure_ptr                                       /home/wenda/opt/gcc-arm-none-eabi/bin/../lib/gcc/arm-none-eabi/5.4.1/../../../../arm-none-eabi/lib/armv7e-m/fpu/libc_nano.a(lib_a-impure.o)
                                                  /home/wenda/opt/gcc-arm-none-eabi/bin/../lib/gcc/arm-none-eabi/5.4.1/../../../../arm-none-eabi/lib/armv7e-m/fpu/libc_nano.a(lib_a-reent.o)
                                                  /home/wenda/opt/gcc-arm-none-eabi/bin/../lib/gcc/arm-none-eabi/5.4.1/../../../../arm-none-eabi/lib/armv7e-m/fpu/libc_nano.a(lib_a-nano-vfprintf.o)
                                                  /home/wenda/opt/gcc-arm-none-eabi/bin/../lib/gcc/arm-none-eabi/5.4.1/../../../../arm-none-eabi/lib/armv7e-m/fpu/libc_nano.a(lib_a-findfp.o)
                                                  /home/wenda/opt/gcc-arm-none-eabi/bin/../lib/gcc/arm-none-eabi/5.4.1/../../../../arm-none-eabi/lib/armv7e-m/fpu/libc_nano.a(lib_a-fflush.o)
                                                  /home/wenda/opt/gcc-arm-none-eabi/bin/../lib/gcc/arm-none-eabi/5.4.1/../../../../arm-none-eabi/lib/armv7e-m/fpu/libc_nano.a(lib_a-wsetup.o)
                                                  /home/wenda/opt/gcc-arm-none-eabi/bin/../lib/gcc/arm-none-eabi/5.4.1/../../../../arm-none-eabi/lib/armv7e-m/fpu/libc_nano.a(lib_a-wbuf.o)
                                                  /home/wenda/opt/gcc-arm-none-eabi/bin/../lib/gcc/arm-none-eabi/5.4.1/../../../../arm-none-eabi/lib/armv7e-m/fpu/libc_nano.a(lib_a-signal.o)
                                                  /home/wenda/opt/gcc-arm-none-eabi/bin/../lib/gcc/arm-none-eabi/5.4.1/../../../../arm-none-eabi/lib/armv7e-m/fpu/libc_nano.a(lib_a-realloc.o)
                                                  /home/wenda/opt/gcc-arm-none-eabi/bin/../lib/gcc/arm-none-eabi/5.4.1/../../../../arm-none-eabi/lib/armv7e-m/fpu/libc_nano.a(lib_a-puts.o)
                                                  /home/wenda/opt/gcc-arm-none-eabi/bin/../lib/gcc/arm-none-eabi/5.4.1/../../../../arm-none-eabi/lib/armv7e-m/fpu/libc_nano.a(lib_a-printf.o)
                                                  /home/wenda/opt/gcc-arm-none-eabi/bin/../lib/gcc/arm-none-eabi/5.4.1/../../../../arm-none-eabi/lib/armv7e-m/fpu/libc_nano.a(lib_a-malloc.o)
                                                  /home/wenda/opt/gcc-arm-none-eabi/bin/../lib/gcc/arm-none-eabi/5.4.1/../../../../arm-none-eabi/lib/armv7e-m/fpu/libc_nano.a(lib_a-fputs.o)
                                                  /home/wenda/opt/gcc-arm-none-eabi/bin/../lib/gcc/arm-none-eabi/5.4.1/../../../../arm-none-eabi/lib/armv7e-m/fpu/libc_nano.a(lib_a-errno.o)
                                                  tensorflow/lite/experimental/micro/debug_log.o
_init                                             /home/wenda/opt/gcc-arm-none-eabi/bin/../lib/gcc/arm-none-eabi/5.4.1/armv7e-m/fpu/crti.o
                                                  /home/wenda/opt/gcc-arm-none-eabi/bin/../lib/gcc/arm-none-eabi/5.4.1/../../../../arm-none-eabi/lib/armv7e-m/fpu/libc_nano.a(lib_a-init.o)
_init_signal                                      /home/wenda/opt/gcc-arm-none-eabi/bin/../lib/gcc/arm-none-eabi/5.4.1/../../../../arm-none-eabi/lib/armv7e-m/fpu/libc_nano.a(lib_a-signal.o)
_init_signal_r                                    /home/wenda/opt/gcc-arm-none-eabi/bin/../lib/gcc/arm-none-eabi/5.4.1/../../../../arm-none-eabi/lib/armv7e-m/fpu/libc_nano.a(lib_a-signal.o)
_iprintf_r                                        /home/wenda/opt/gcc-arm-none-eabi/bin/../lib/gcc/arm-none-eabi/5.4.1/../../../../arm-none-eabi/lib/armv7e-m/fpu/libc_nano.a(lib_a-printf.o)
_isatty                                           /home/wenda/opt/gcc-arm-none-eabi/bin/../lib/gcc/arm-none-eabi/5.4.1/../../../../arm-none-eabi/lib/armv7e-m/fpu/libnosys.a(isatty.o)
                                                  /home/wenda/opt/gcc-arm-none-eabi/bin/../lib/gcc/arm-none-eabi/5.4.1/../../../../arm-none-eabi/lib/armv7e-m/fpu/libc_nano.a(lib_a-isattyr.o)
_isatty_r                                         /home/wenda/opt/gcc-arm-none-eabi/bin/../lib/gcc/arm-none-eabi/5.4.1/../../../../arm-none-eabi/lib/armv7e-m/fpu/libc_nano.a(lib_a-isattyr.o)
                                                  /home/wenda/opt/gcc-arm-none-eabi/bin/../lib/gcc/arm-none-eabi/5.4.1/../../../../arm-none-eabi/lib/armv7e-m/fpu/libc_nano.a(lib_a-makebuf.o)
_kill                                             /home/wenda/opt/gcc-arm-none-eabi/bin/../lib/gcc/arm-none-eabi/5.4.1/../../../../arm-none-eabi/lib/armv7e-m/fpu/libnosys.a(kill.o)
                                                  /home/wenda/opt/gcc-arm-none-eabi/bin/../lib/gcc/arm-none-eabi/5.4.1/../../../../arm-none-eabi/lib/armv7e-m/fpu/libc_nano.a(lib_a-signalr.o)
_kill_r                                           /home/wenda/opt/gcc-arm-none-eabi/bin/../lib/gcc/arm-none-eabi/5.4.1/../../../../arm-none-eabi/lib/armv7e-m/fpu/libc_nano.a(lib_a-signalr.o)
                                                  /home/wenda/opt/gcc-arm-none-eabi/bin/../lib/gcc/arm-none-eabi/5.4.1/../../../../arm-none-eabi/lib/armv7e-m/fpu/libc_nano.a(lib_a-signal.o)
_lseek                                            /home/wenda/opt/gcc-arm-none-eabi/bin/../lib/gcc/arm-none-eabi/5.4.1/../../../../arm-none-eabi/lib/armv7e-m/fpu/libnosys.a(lseek.o)
                                                  /home/wenda/opt/gcc-arm-none-eabi/bin/../lib/gcc/arm-none-eabi/5.4.1/../../../../arm-none-eabi/lib/armv7e-m/fpu/libc_nano.a(lib_a-lseekr.o)
_lseek_r                                          /home/wenda/opt/gcc-arm-none-eabi/bin/../lib/gcc/arm-none-eabi/5.4.1/../../../../arm-none-eabi/lib/armv7e-m/fpu/libc_nano.a(lib_a-lseekr.o)
                                                  /home/wenda/opt/gcc-arm-none-eabi/bin/../lib/gcc/arm-none-eabi/5.4.1/../../../../arm-none-eabi/lib/armv7e-m/fpu/libc_nano.a(lib_a-stdio.o)
_mainCRTStartup                                   /home/wenda/opt/gcc-arm-none-eabi/bin/../lib/gcc/arm-none-eabi/5.4.1/../../../../arm-none-eabi/lib/armv7e-m/fpu/crt0.o
_malloc_r                                         /home/wenda/opt/gcc-arm-none-eabi/bin/../lib/gcc/arm-none-eabi/5.4.1/../../../../arm-none-eabi/lib/armv7e-m/fpu/libc_nano.a(lib_a-nano-mallocr.o)
                                                  /home/wenda/opt/gcc-arm-none-eabi/bin/../lib/gcc/arm-none-eabi/5.4.1/../../../../arm-none-eabi/lib/armv7e-m/fpu/libc_nano.a(lib_a-fvwrite.o)
                                                  /home/wenda/opt/gcc-arm-none-eabi/bin/../lib/gcc/arm-none-eabi/5.4.1/../../../../arm-none-eabi/lib/armv7e-m/fpu/libc_nano.a(lib_a-nano-reallocr.o)
                                                  /home/wenda/opt/gcc-arm-none-eabi/bin/../lib/gcc/arm-none-eabi/5.4.1/../../../../arm-none-eabi/lib/armv7e-m/fpu/libc_nano.a(lib_a-makebuf.o)
                                                  /home/wenda/opt/gcc-arm-none-eabi/bin/../lib/gcc/arm-none-eabi/5.4.1/../../../../arm-none-eabi/lib/armv7e-m/fpu/libc_nano.a(lib_a-findfp.o)
                                                  /home/wenda/opt/gcc-arm-none-eabi/bin/../lib/gcc/arm-none-eabi/5.4.1/../../../../arm-none-eabi/lib/armv7e-m/fpu/libc_nano.a(lib_a-signal.o)
                                                  /home/wenda/opt/gcc-arm-none-eabi/bin/../lib/gcc/arm-none-eabi/5.4.1/../../../../arm-none-eabi/lib/armv7e-m/fpu/libc_nano.a(lib_a-malloc.o)
_malloc_usable_size_r                             /home/wenda/opt/gcc-arm-none-eabi/bin/../lib/gcc/arm-none-eabi/5.4.1/../../../../arm-none-eabi/lib/armv7e-m/fpu/libc_nano.a(lib_a-nano-msizer.o)
                                                  /home/wenda/opt/gcc-arm-none-eabi/bin/../lib/gcc/arm-none-eabi/5.4.1/../../../../arm-none-eabi/lib/armv7e-m/fpu/libc_nano.a(lib_a-nano-reallocr.o)
_printf_common                                    /home/wenda/opt/gcc-arm-none-eabi/bin/../lib/gcc/arm-none-eabi/5.4.1/../../../../arm-none-eabi/lib/armv7e-m/fpu/libc_nano.a(lib_a-nano-vfprintf_i.o)
_printf_float                                     /home/wenda/opt/gcc-arm-none-eabi/bin/../lib/gcc/arm-none-eabi/5.4.1/../../../../arm-none-eabi/lib/armv7e-m/fpu/libc_nano.a(lib_a-nano-vfprintf.o)
_printf_i                                         /home/wenda/opt/gcc-arm-none-eabi/bin/../lib/gcc/arm-none-eabi/5.4.1/../../../../arm-none-eabi/lib/armv7e-m/fpu/libc_nano.a(lib_a-nano-vfprintf_i.o)
                                                  /home/wenda/opt/gcc-arm-none-eabi/bin/../lib/gcc/arm-none-eabi/5.4.1/../../../../arm-none-eabi/lib/armv7e-m/fpu/libc_nano.a(lib_a-nano-vfprintf.o)
_printf_r                                         /home/wenda/opt/gcc-arm-none-eabi/bin/../lib/gcc/arm-none-eabi/5.4.1/../../../../arm-none-eabi/lib/armv7e-m/fpu/libc_nano.a(lib_a-printf.o)
_puts_r                                           /home/wenda/opt/gcc-arm-none-eabi/bin/../lib/gcc/arm-none-eabi/5.4.1/../../../../arm-none-eabi/lib/armv7e-m/fpu/libc_nano.a(lib_a-puts.o)
_raise_r                                          /home/wenda/opt/gcc-arm-none-eabi/bin/../lib/gcc/arm-none-eabi/5.4.1/../../../../arm-none-eabi/lib/armv7e-m/fpu/libc_nano.a(lib_a-signal.o)
_read                                             /home/wenda/opt/gcc-arm-none-eabi/bin/../lib/gcc/arm-none-eabi/5.4.1/../../../../arm-none-eabi/lib/armv7e-m/fpu/libnosys.a(read.o)
                                                  /home/wenda/opt/gcc-arm-none-eabi/bin/../lib/gcc/arm-none-eabi/5.4.1/../../../../arm-none-eabi/lib/armv7e-m/fpu/libc_nano.a(lib_a-readr.o)
_read_r                                           /home/wenda/opt/gcc-arm-none-eabi/bin/../lib/gcc/arm-none-eabi/5.4.1/../../../../arm-none-eabi/lib/armv7e-m/fpu/libc_nano.a(lib_a-readr.o)
                                                  /home/wenda/opt/gcc-arm-none-eabi/bin/../lib/gcc/arm-none-eabi/5.4.1/../../../../arm-none-eabi/lib/armv7e-m/fpu/libc_nano.a(lib_a-stdio.o)
_realloc_r                                        /home/wenda/opt/gcc-arm-none-eabi/bin/../lib/gcc/arm-none-eabi/5.4.1/../../../../arm-none-eabi/lib/armv7e-m/fpu/libc_nano.a(lib_a-nano-reallocr.o)
                                                  /home/wenda/opt/gcc-arm-none-eabi/bin/../lib/gcc/arm-none-eabi/5.4.1/../../../../arm-none-eabi/lib/armv7e-m/fpu/libc_nano.a(lib_a-fvwrite.o)
                                                  /home/wenda/opt/gcc-arm-none-eabi/bin/../lib/gcc/arm-none-eabi/5.4.1/../../../../arm-none-eabi/lib/armv7e-m/fpu/libc_nano.a(lib_a-realloc.o)
_reclaim_reent                                    /home/wenda/opt/gcc-arm-none-eabi/bin/../lib/gcc/arm-none-eabi/5.4.1/../../../../arm-none-eabi/lib/armv7e-m/fpu/libc_nano.a(lib_a-reent.o)
_sbrk                                             /home/wenda/opt/gcc-arm-none-eabi/bin/../lib/gcc/arm-none-eabi/5.4.1/../../../../arm-none-eabi/lib/armv7e-m/fpu/libnosys.a(sbrk.o)
                                                  /home/wenda/opt/gcc-arm-none-eabi/bin/../lib/gcc/arm-none-eabi/5.4.1/../../../../arm-none-eabi/lib/armv7e-m/fpu/libc_nano.a(lib_a-sbrkr.o)
_sbrk_r                                           /home/wenda/opt/gcc-arm-none-eabi/bin/../lib/gcc/arm-none-eabi/5.4.1/../../../../arm-none-eabi/lib/armv7e-m/fpu/libc_nano.a(lib_a-sbrkr.o)
                                                  /home/wenda/opt/gcc-arm-none-eabi/bin/../lib/gcc/arm-none-eabi/5.4.1/../../../../arm-none-eabi/lib/armv7e-m/fpu/libc_nano.a(lib_a-nano-mallocr.o)
_signal_r                                         /home/wenda/opt/gcc-arm-none-eabi/bin/../lib/gcc/arm-none-eabi/5.4.1/../../../../arm-none-eabi/lib/armv7e-m/fpu/libc_nano.a(lib_a-signal.o)
_start                                            /home/wenda/opt/gcc-arm-none-eabi/bin/../lib/gcc/arm-none-eabi/5.4.1/../../../../arm-none-eabi/lib/armv7e-m/fpu/crt0.o
_vfiprintf_r                                      /home/wenda/opt/gcc-arm-none-eabi/bin/../lib/gcc/arm-none-eabi/5.4.1/../../../../arm-none-eabi/lib/armv7e-m/fpu/libc_nano.a(lib_a-nano-vfprintf.o)
_vfprintf_r                                       /home/wenda/opt/gcc-arm-none-eabi/bin/../lib/gcc/arm-none-eabi/5.4.1/../../../../arm-none-eabi/lib/armv7e-m/fpu/libc_nano.a(lib_a-nano-vfprintf.o)
                                                  /home/wenda/opt/gcc-arm-none-eabi/bin/../lib/gcc/arm-none-eabi/5.4.1/../../../../arm-none-eabi/lib/armv7e-m/fpu/libc_nano.a(lib_a-printf.o)
_write                                            /home/wenda/opt/gcc-arm-none-eabi/bin/../lib/gcc/arm-none-eabi/5.4.1/../../../../arm-none-eabi/lib/armv7e-m/fpu/libnosys.a(write.o)
                                                  /home/wenda/opt/gcc-arm-none-eabi/bin/../lib/gcc/arm-none-eabi/5.4.1/../../../../arm-none-eabi/lib/armv7e-m/fpu/libc_nano.a(lib_a-writer.o)
_write_r                                          /home/wenda/opt/gcc-arm-none-eabi/bin/../lib/gcc/arm-none-eabi/5.4.1/../../../../arm-none-eabi/lib/armv7e-m/fpu/libc_nano.a(lib_a-writer.o)
                                                  /home/wenda/opt/gcc-arm-none-eabi/bin/../lib/gcc/arm-none-eabi/5.4.1/../../../../arm-none-eabi/lib/armv7e-m/fpu/libc_nano.a(lib_a-stdio.o)
abort                                             /home/wenda/opt/gcc-arm-none-eabi/bin/../lib/gcc/arm-none-eabi/5.4.1/../../../../arm-none-eabi/lib/armv7e-m/fpu/libc_nano.a(lib_a-abort.o)
                                                  /home/wenda/opt/gcc-arm-none-eabi/bin/../lib/gcc/arm-none-eabi/5.4.1/armv7e-m/fpu/libgcc.a(pr-support.o)
                                                  /home/wenda/opt/gcc-arm-none-eabi/bin/../lib/gcc/arm-none-eabi/5.4.1/armv7e-m/fpu/libgcc.a(unwind-arm.o)
                                                  /home/wenda/opt/gcc-arm-none-eabi/bin/../lib/gcc/arm-none-eabi/5.4.1/../../../../arm-none-eabi/lib/armv7e-m/fpu/libstdc++_nano.a(eh_term_handler.o)
                                                  /home/wenda/opt/gcc-arm-none-eabi/bin/../lib/gcc/arm-none-eabi/5.4.1/../../../../arm-none-eabi/lib/armv7e-m/fpu/libstdc++_nano.a(eh_terminate.o)
                                                  /home/wenda/opt/gcc-arm-none-eabi/bin/../lib/gcc/arm-none-eabi/5.4.1/../../../../arm-none-eabi/lib/armv7e-m/fpu/libstdc++_nano.a(eh_personality.o)
                                                  tensorflow/lite/kernels/internal/quantization_util.o
                                                  tensorflow/lite/experimental/micro/kernels/fully_connected.o
                                                  tensorflow/lite/experimental/micro/kernels/softmax.o
                                                  tensorflow/lite/experimental/micro/kernels/depthwise_conv.o
atexit                                            /home/wenda/opt/gcc-arm-none-eabi/bin/../lib/gcc/arm-none-eabi/5.4.1/../../../../arm-none-eabi/lib/armv7e-m/fpu/crt0.o
cleanup_glue                                      /home/wenda/opt/gcc-arm-none-eabi/bin/../lib/gcc/arm-none-eabi/5.4.1/../../../../arm-none-eabi/lib/armv7e-m/fpu/libc_nano.a(lib_a-reent.o)
copysign                                          /home/wenda/opt/gcc-arm-none-eabi/bin/../lib/gcc/arm-none-eabi/5.4.1/../../../../arm-none-eabi/lib/armv7e-m/fpu/libm.a(lib_a-s_copysign.o)
                                                  /home/wenda/opt/gcc-arm-none-eabi/bin/../lib/gcc/arm-none-eabi/5.4.1/../../../../arm-none-eabi/lib/armv7e-m/fpu/libm.a(lib_a-s_scalbn.o)
cos                                               /home/wenda/opt/gcc-arm-none-eabi/bin/../lib/gcc/arm-none-eabi/5.4.1/../../../../arm-none-eabi/lib/armv7e-m/fpu/libm.a(lib_a-s_cos.o)
                                                  tensorflow/lite/experimental/micro/examples/micro_speech/preprocessor.o
end                                               /home/wenda/opt/gcc-arm-none-eabi/bin/../lib/gcc/arm-none-eabi/5.4.1/../../../../arm-none-eabi/lib/armv7e-m/fpu/libnosys.a(sbrk.o)
errno                                             /home/wenda/opt/gcc-arm-none-eabi/bin/../lib/gcc/arm-none-eabi/5.4.1/../../../../arm-none-eabi/lib/armv7e-m/fpu/libc_nano.a(lib_a-reent.o)
                                                  /home/wenda/opt/gcc-arm-none-eabi/bin/../lib/gcc/arm-none-eabi/5.4.1/../../../../arm-none-eabi/lib/armv7e-m/fpu/libnosys.a(write.o)
                                                  /home/wenda/opt/gcc-arm-none-eabi/bin/../lib/gcc/arm-none-eabi/5.4.1/../../../../arm-none-eabi/lib/armv7e-m/fpu/libnosys.a(read.o)
                                                  /home/wenda/opt/gcc-arm-none-eabi/bin/../lib/gcc/arm-none-eabi/5.4.1/../../../../arm-none-eabi/lib/armv7e-m/fpu/libnosys.a(lseek.o)
                                                  /home/wenda/opt/gcc-arm-none-eabi/bin/../lib/gcc/arm-none-eabi/5.4.1/../../../../arm-none-eabi/lib/armv7e-m/fpu/libnosys.a(kill.o)
                                                  /home/wenda/opt/gcc-arm-none-eabi/bin/../lib/gcc/arm-none-eabi/5.4.1/../../../../arm-none-eabi/lib/armv7e-m/fpu/libnosys.a(isatty.o)
                                                  /home/wenda/opt/gcc-arm-none-eabi/bin/../lib/gcc/arm-none-eabi/5.4.1/../../../../arm-none-eabi/lib/armv7e-m/fpu/libnosys.a(getpid.o)
                                                  /home/wenda/opt/gcc-arm-none-eabi/bin/../lib/gcc/arm-none-eabi/5.4.1/../../../../arm-none-eabi/lib/armv7e-m/fpu/libnosys.a(fstat.o)
                                                  /home/wenda/opt/gcc-arm-none-eabi/bin/../lib/gcc/arm-none-eabi/5.4.1/../../../../arm-none-eabi/lib/armv7e-m/fpu/libnosys.a(close.o)
                                                  /home/wenda/opt/gcc-arm-none-eabi/bin/../lib/gcc/arm-none-eabi/5.4.1/../../../../arm-none-eabi/lib/armv7e-m/fpu/libc_nano.a(lib_a-readr.o)
                                                  /home/wenda/opt/gcc-arm-none-eabi/bin/../lib/gcc/arm-none-eabi/5.4.1/../../../../arm-none-eabi/lib/armv7e-m/fpu/libc_nano.a(lib_a-lseekr.o)
                                                  /home/wenda/opt/gcc-arm-none-eabi/bin/../lib/gcc/arm-none-eabi/5.4.1/../../../../arm-none-eabi/lib/armv7e-m/fpu/libc_nano.a(lib_a-isattyr.o)
                                                  /home/wenda/opt/gcc-arm-none-eabi/bin/../lib/gcc/arm-none-eabi/5.4.1/../../../../arm-none-eabi/lib/armv7e-m/fpu/libc_nano.a(lib_a-fstatr.o)
                                                  /home/wenda/opt/gcc-arm-none-eabi/bin/../lib/gcc/arm-none-eabi/5.4.1/../../../../arm-none-eabi/lib/armv7e-m/fpu/libc_nano.a(lib_a-closer.o)
                                                  /home/wenda/opt/gcc-arm-none-eabi/bin/../lib/gcc/arm-none-eabi/5.4.1/../../../../arm-none-eabi/lib/armv7e-m/fpu/libc_nano.a(lib_a-writer.o)
                                                  /home/wenda/opt/gcc-arm-none-eabi/bin/../lib/gcc/arm-none-eabi/5.4.1/../../../../arm-none-eabi/lib/armv7e-m/fpu/libc_nano.a(lib_a-signalr.o)
                                                  /home/wenda/opt/gcc-arm-none-eabi/bin/../lib/gcc/arm-none-eabi/5.4.1/../../../../arm-none-eabi/lib/armv7e-m/fpu/libc_nano.a(lib_a-sbrkr.o)
exit                                              /home/wenda/opt/gcc-arm-none-eabi/bin/../lib/gcc/arm-none-eabi/5.4.1/../../../../arm-none-eabi/lib/armv7e-m/fpu/libc_nano.a(lib_a-exit.o)
                                                  /home/wenda/opt/gcc-arm-none-eabi/bin/../lib/gcc/arm-none-eabi/5.4.1/../../../../arm-none-eabi/lib/armv7e-m/fpu/crt0.o
exp                                               /home/wenda/opt/gcc-arm-none-eabi/bin/../lib/gcc/arm-none-eabi/5.4.1/../../../../arm-none-eabi/lib/armv7e-m/fpu/libm.a(lib_a-w_exp.o)
                                                  tensorflow/lite/experimental/micro/kernels/softmax.o
expf                                              /home/wenda/opt/gcc-arm-none-eabi/bin/../lib/gcc/arm-none-eabi/5.4.1/../../../../arm-none-eabi/lib/armv7e-m/fpu/libm.a(lib_a-wf_exp.o)
                                                  tensorflow/lite/experimental/micro/kernels/softmax.o
fabs                                              /home/wenda/opt/gcc-arm-none-eabi/bin/../lib/gcc/arm-none-eabi/5.4.1/../../../../arm-none-eabi/lib/armv7e-m/fpu/libm.a(lib_a-s_fabs.o)
                                                  /home/wenda/opt/gcc-arm-none-eabi/bin/../lib/gcc/arm-none-eabi/5.4.1/../../../../arm-none-eabi/lib/armv7e-m/fpu/libm.a(lib_a-e_rem_pio2.o)
fc_tflite                                         tf_micro_model_backup.o
                                                  machinelearning.o
fc_tflite_len                                     tf_micro_model_backup.o
fflush                                            /home/wenda/opt/gcc-arm-none-eabi/bin/../lib/gcc/arm-none-eabi/5.4.1/../../../../arm-none-eabi/lib/armv7e-m/fpu/libc_nano.a(lib_a-fflush.o)
finite                                            /home/wenda/opt/gcc-arm-none-eabi/bin/../lib/gcc/arm-none-eabi/5.4.1/../../../../arm-none-eabi/lib/armv7e-m/fpu/libm.a(lib_a-s_finite.o)
                                                  /home/wenda/opt/gcc-arm-none-eabi/bin/../lib/gcc/arm-none-eabi/5.4.1/../../../../arm-none-eabi/lib/armv7e-m/fpu/libm.a(lib_a-w_exp.o)
finitef                                           /home/wenda/opt/gcc-arm-none-eabi/bin/../lib/gcc/arm-none-eabi/5.4.1/../../../../arm-none-eabi/lib/armv7e-m/fpu/libm.a(lib_a-sf_finite.o)
                                                  /home/wenda/opt/gcc-arm-none-eabi/bin/../lib/gcc/arm-none-eabi/5.4.1/../../../../arm-none-eabi/lib/armv7e-m/fpu/libm.a(lib_a-wf_exp.o)
flatbuffers::Table::GetOptionalFieldOffset(unsigned short) const tensorflow/lite/experimental/micro/simple_tensor_allocator.o
                                                  tensorflow/lite/core/api/op_resolver.o
                                                  tensorflow/lite/core/api/flatbuffer_conversions.o
                                                  tensorflow/lite/experimental/micro/micro_interpreter.o
flatbuffers::Vector<flatbuffers::Offset<tflite::Buffer> > const* flatbuffers::Table::GetPointer<flatbuffers::Vector<flatbuffers::Offset<tflite::Buffer> > const*>(unsigned short) tensorflow/lite/experimental/micro/micro_interpreter.o
flatbuffers::Vector<long> const* flatbuffers::Table::GetPointer<flatbuffers::Vector<long> const*>(unsigned short) tensorflow/lite/core/api/flatbuffer_conversions.o
flatbuffers::flatbuffer_version_string            tensorflow/lite/experimental/micro/micro_mutable_op_resolver.o
float flatbuffers::Table::GetField<float>(unsigned short, float) const tensorflow/lite/core/api/flatbuffer_conversions.o
floor                                             /home/wenda/opt/gcc-arm-none-eabi/bin/../lib/gcc/arm-none-eabi/5.4.1/../../../../arm-none-eabi/lib/armv7e-m/fpu/libm.a(lib_a-s_floor.o)
                                                  /home/wenda/opt/gcc-arm-none-eabi/bin/../lib/gcc/arm-none-eabi/5.4.1/../../../../arm-none-eabi/lib/armv7e-m/fpu/libm.a(lib_a-k_rem_pio2.o)
                                                  tensorflow/lite/kernels/internal/quantization_util.o
fputs                                             /home/wenda/opt/gcc-arm-none-eabi/bin/../lib/gcc/arm-none-eabi/5.4.1/../../../../arm-none-eabi/lib/armv7e-m/fpu/libc_nano.a(lib_a-fputs.o)
                                                  tensorflow/lite/experimental/micro/debug_log.o
free                                              /home/wenda/opt/gcc-arm-none-eabi/bin/../lib/gcc/arm-none-eabi/5.4.1/../../../../arm-none-eabi/lib/armv7e-m/fpu/libc_nano.a(lib_a-malloc.o)
                                                  /home/wenda/opt/gcc-arm-none-eabi/bin/../lib/gcc/arm-none-eabi/5.4.1/../../../../arm-none-eabi/lib/armv7e-m/fpu/libstdc++_nano.a(del_op.o)
                                                  tensorflow/lite/c/c_api_internal.o
frexp                                             /home/wenda/opt/gcc-arm-none-eabi/bin/../lib/gcc/arm-none-eabi/5.4.1/../../../../arm-none-eabi/lib/armv7e-m/fpu/libm.a(lib_a-s_frexp.o)
                                                  tensorflow/lite/kernels/internal/quantization_util.o
g_no_f9643d42_nohash_4_data                       tensorflow/lite/experimental/micro/examples/micro_speech/no_features_data.o
g_no_f9643d42_nohash_4_height                     tensorflow/lite/experimental/micro/examples/micro_speech/no_features_data.o
g_no_f9643d42_nohash_4_width                      tensorflow/lite/experimental/micro/examples/micro_speech/no_features_data.o
g_tiny_conv_model_data                            tensorflow/lite/experimental/micro/examples/micro_speech/tiny_conv_model_data.o
g_tiny_conv_model_data_len                        tensorflow/lite/experimental/micro/examples/micro_speech/tiny_conv_model_data.o
g_yes_f2e59fea_nohash_1_data                      tensorflow/lite/experimental/micro/examples/micro_speech/yes_features_data.o
g_yes_f2e59fea_nohash_1_height                    tensorflow/lite/experimental/micro/examples/micro_speech/yes_features_data.o
g_yes_f2e59fea_nohash_1_width                     tensorflow/lite/experimental/micro/examples/micro_speech/yes_features_data.o
gemmlowp::FixedPoint<long, (0)+(0)> gemmlowp::operator*<long, 0, 0>(gemmlowp::FixedPoint<long, 0>, gemmlowp::FixedPoint<long, 0>) tensorflow/lite/experimental/micro/kernels/softmax.o
gemmlowp::FixedPoint<long, 0> gemmlowp::exp_on_interval_between_negative_one_quarter_and_0_excl<long>(gemmlowp::FixedPoint<long, 0>) tensorflow/lite/experimental/micro/kernels/softmax.o
gemmlowp::FixedPoint<long, 0> gemmlowp::exp_on_negative_values<long, 5>(gemmlowp::FixedPoint<long, 5>) tensorflow/lite/experimental/micro/kernels/softmax.o
gemmlowp::FixedPoint<long, 0> gemmlowp::one_over_one_plus_x_for_x_in_0_1<long>(gemmlowp::FixedPoint<long, 0>) tensorflow/lite/experimental/micro/kernels/softmax.o
gemmlowp::FixedPoint<long, 0>::ScalarRawType gemmlowp::RescaleConstantInitializer<gemmlowp::FixedPoint<long, 0> >(long) tensorflow/lite/experimental/micro/kernels/softmax.o
hardware_init_hook                                /home/wenda/opt/gcc-arm-none-eabi/bin/../lib/gcc/arm-none-eabi/5.4.1/../../../../arm-none-eabi/lib/armv7e-m/fpu/crt0.o
iprintf                                           /home/wenda/opt/gcc-arm-none-eabi/bin/../lib/gcc/arm-none-eabi/5.4.1/../../../../arm-none-eabi/lib/armv7e-m/fpu/libc_nano.a(lib_a-printf.o)
kCategoryLabels                                   tensorflow/lite/experimental/micro/examples/micro_speech/model_settings.o
                                                  tensorflow/lite/experimental/micro/examples/micro_speech/recognize_commands.o
kTfLiteNullBufferHandle                           tensorflow/lite/c/c_api_internal.o
logf                                              /home/wenda/opt/gcc-arm-none-eabi/bin/../lib/gcc/arm-none-eabi/5.4.1/../../../../arm-none-eabi/lib/armv7e-m/fpu/libm.a(lib_a-wf_log.o)
                                                  tensorflow/lite/kernels/internal/quantization_util.o
long flatbuffers::Table::GetField<long>(unsigned short, long) const tensorflow/lite/core/api/flatbuffer_conversions.o
long gemmlowp::RoundingDivideByPOT<long>(long, int) tensorflow/lite/experimental/micro/kernels/softmax.o
long gemmlowp::SaturatingRoundingDoublingHighMul<long>(long, long) tensorflow/lite/experimental/micro/kernels/softmax.o
machine_learning_test                             machinelearning.o
                                                  main.o
main                                              main.o
                                                  /home/wenda/opt/gcc-arm-none-eabi/bin/../lib/gcc/arm-none-eabi/5.4.1/../../../../arm-none-eabi/lib/armv7e-m/fpu/crt0.o
malloc                                            /home/wenda/opt/gcc-arm-none-eabi/bin/../lib/gcc/arm-none-eabi/5.4.1/../../../../arm-none-eabi/lib/armv7e-m/fpu/libc_nano.a(lib_a-malloc.o)
                                                  tensorflow/lite/c/c_api_internal.o
matherr                                           /home/wenda/opt/gcc-arm-none-eabi/bin/../lib/gcc/arm-none-eabi/5.4.1/../../../../arm-none-eabi/lib/armv7e-m/fpu/libm.a(lib_a-s_matherr.o)
                                                  /home/wenda/opt/gcc-arm-none-eabi/bin/../lib/gcc/arm-none-eabi/5.4.1/../../../../arm-none-eabi/lib/armv7e-m/fpu/libm.a(lib_a-wf_log.o)
                                                  /home/wenda/opt/gcc-arm-none-eabi/bin/../lib/gcc/arm-none-eabi/5.4.1/../../../../arm-none-eabi/lib/armv7e-m/fpu/libm.a(lib_a-wf_exp.o)
                                                  /home/wenda/opt/gcc-arm-none-eabi/bin/../lib/gcc/arm-none-eabi/5.4.1/../../../../arm-none-eabi/lib/armv7e-m/fpu/libm.a(lib_a-w_exp.o)
memchr                                            /home/wenda/opt/gcc-arm-none-eabi/bin/../lib/gcc/arm-none-eabi/5.4.1/../../../../arm-none-eabi/lib/armv7e-m/fpu/libc_nano.a(lib_a-memchr.o)
                                                  /home/wenda/opt/gcc-arm-none-eabi/bin/../lib/gcc/arm-none-eabi/5.4.1/../../../../arm-none-eabi/lib/armv7e-m/fpu/libc_nano.a(lib_a-fvwrite.o)
                                                  /home/wenda/opt/gcc-arm-none-eabi/bin/../lib/gcc/arm-none-eabi/5.4.1/../../../../arm-none-eabi/lib/armv7e-m/fpu/libc_nano.a(lib_a-nano-vfprintf_i.o)
                                                  /home/wenda/opt/gcc-arm-none-eabi/bin/../lib/gcc/arm-none-eabi/5.4.1/../../../../arm-none-eabi/lib/armv7e-m/fpu/libc_nano.a(lib_a-nano-vfprintf.o)
memcpy                                            /home/wenda/opt/gcc-arm-none-eabi/bin/../lib/gcc/arm-none-eabi/5.4.1/../../../../arm-none-eabi/lib/armv7e-m/fpu/libc_nano.a(lib_a-memcpy-stub.o)
                                                  /home/wenda/opt/gcc-arm-none-eabi/bin/../lib/gcc/arm-none-eabi/5.4.1/../../../../arm-none-eabi/lib/armv7e-m/fpu/libc_nano.a(lib_a-fvwrite.o)
                                                  /home/wenda/opt/gcc-arm-none-eabi/bin/../lib/gcc/arm-none-eabi/5.4.1/../../../../arm-none-eabi/lib/armv7e-m/fpu/libc_nano.a(lib_a-nano-reallocr.o)
                                                  /home/wenda/opt/gcc-arm-none-eabi/bin/../lib/gcc/arm-none-eabi/5.4.1/armv7e-m/fpu/libgcc.a(unwind-arm.o)
                                                  machinelearning.o
                                                  tensorflow/lite/c/c_api_internal.o
                                                  tensorflow/lite/experimental/micro/kernels/fully_connected.o
                                                  tensorflow/lite/experimental/micro/kernels/softmax.o
                                                  tensorflow/lite/experimental/micro/kernels/depthwise_conv.o
memmove                                           /home/wenda/opt/gcc-arm-none-eabi/bin/../lib/gcc/arm-none-eabi/5.4.1/../../../../arm-none-eabi/lib/armv7e-m/fpu/libc_nano.a(lib_a-memmove.o)
                                                  /home/wenda/opt/gcc-arm-none-eabi/bin/../lib/gcc/arm-none-eabi/5.4.1/../../../../arm-none-eabi/lib/armv7e-m/fpu/libc_nano.a(lib_a-fvwrite.o)
memset                                            /home/wenda/opt/gcc-arm-none-eabi/bin/../lib/gcc/arm-none-eabi/5.4.1/../../../../arm-none-eabi/lib/armv7e-m/fpu/libc_nano.a(lib_a-memset.o)
                                                  /home/wenda/opt/gcc-arm-none-eabi/bin/../lib/gcc/arm-none-eabi/5.4.1/../../../../arm-none-eabi/lib/armv7e-m/fpu/libc_nano.a(lib_a-findfp.o)
                                                  tensorflow/lite/c/c_api_internal.o
                                                  tensorflow/lite/experimental/micro/kernels/softmax.o
                                                  /home/wenda/opt/gcc-arm-none-eabi/bin/../lib/gcc/arm-none-eabi/5.4.1/../../../../arm-none-eabi/lib/armv7e-m/fpu/crt0.o
nan                                               /home/wenda/opt/gcc-arm-none-eabi/bin/../lib/gcc/arm-none-eabi/5.4.1/../../../../arm-none-eabi/lib/armv7e-m/fpu/libm.a(lib_a-s_nan.o)
                                                  /home/wenda/opt/gcc-arm-none-eabi/bin/../lib/gcc/arm-none-eabi/5.4.1/../../../../arm-none-eabi/lib/armv7e-m/fpu/libm.a(lib_a-wf_log.o)
nn_model_tflite                                   tfmicro_models.o
                                                  machinelearning.o
nn_model_tflite_len                               tfmicro_models.o
operator delete(void*)                            /home/wenda/opt/gcc-arm-none-eabi/bin/../lib/gcc/arm-none-eabi/5.4.1/../../../../arm-none-eabi/lib/armv7e-m/fpu/libstdc++_nano.a(del_op.o)
                                                  /home/wenda/opt/gcc-arm-none-eabi/bin/../lib/gcc/arm-none-eabi/5.4.1/../../../../arm-none-eabi/lib/armv7e-m/fpu/libstdc++_nano.a(eh_exception.o)
                                                  /home/wenda/opt/gcc-arm-none-eabi/bin/../lib/gcc/arm-none-eabi/5.4.1/../../../../arm-none-eabi/lib/armv7e-m/fpu/libstdc++_nano.a(class_type_info.o)
                                                  /home/wenda/opt/gcc-arm-none-eabi/bin/../lib/gcc/arm-none-eabi/5.4.1/../../../../arm-none-eabi/lib/armv7e-m/fpu/libstdc++_nano.a(tinfo.o)
                                                  /home/wenda/opt/gcc-arm-none-eabi/bin/../lib/gcc/arm-none-eabi/5.4.1/../../../../arm-none-eabi/lib/armv7e-m/fpu/libstdc++_nano.a(si_class_type_info.o)
                                                  machinelearning.o
printf                                            /home/wenda/opt/gcc-arm-none-eabi/bin/../lib/gcc/arm-none-eabi/5.4.1/../../../../arm-none-eabi/lib/armv7e-m/fpu/libc_nano.a(lib_a-printf.o)
                                                  main.o
                                                  tensorflow/lite/c/c_api_internal.o
puts                                              /home/wenda/opt/gcc-arm-none-eabi/bin/../lib/gcc/arm-none-eabi/5.4.1/../../../../arm-none-eabi/lib/armv7e-m/fpu/libc_nano.a(lib_a-puts.o)
                                                  main.o
                                                  tensorflow/lite/c/c_api_internal.o
raise                                             /home/wenda/opt/gcc-arm-none-eabi/bin/../lib/gcc/arm-none-eabi/5.4.1/../../../../arm-none-eabi/lib/armv7e-m/fpu/libc_nano.a(lib_a-signal.o)
                                                  /home/wenda/opt/gcc-arm-none-eabi/bin/../lib/gcc/arm-none-eabi/5.4.1/../../../../arm-none-eabi/lib/armv7e-m/fpu/libc_nano.a(lib_a-abort.o)
realloc                                           /home/wenda/opt/gcc-arm-none-eabi/bin/../lib/gcc/arm-none-eabi/5.4.1/../../../../arm-none-eabi/lib/armv7e-m/fpu/libc_nano.a(lib_a-realloc.o)
                                                  tensorflow/lite/c/c_api_internal.o
restore_core_regs                                 /home/wenda/opt/gcc-arm-none-eabi/bin/../lib/gcc/arm-none-eabi/5.4.1/armv7e-m/fpu/libgcc.a(libunwind.o)
                                                  /home/wenda/opt/gcc-arm-none-eabi/bin/../lib/gcc/arm-none-eabi/5.4.1/armv7e-m/fpu/libgcc.a(unwind-arm.o)
round                                             /home/wenda/opt/gcc-arm-none-eabi/bin/../lib/gcc/arm-none-eabi/5.4.1/../../../../arm-none-eabi/lib/armv7e-m/fpu/libm.a(lib_a-s_round.o)
                                                  tensorflow/lite/kernels/internal/quantization_util.o
                                                  tensorflow/lite/kernels/kernel_util.o
roundf                                            /home/wenda/opt/gcc-arm-none-eabi/bin/../lib/gcc/arm-none-eabi/5.4.1/../../../../arm-none-eabi/lib/armv7e-m/fpu/libm.a(lib_a-sf_round.o)
                                                  tensorflow/lite/experimental/micro/examples/micro_speech/preprocessor.o
scalbn                                            /home/wenda/opt/gcc-arm-none-eabi/bin/../lib/gcc/arm-none-eabi/5.4.1/../../../../arm-none-eabi/lib/armv7e-m/fpu/libm.a(lib_a-s_scalbn.o)
                                                  /home/wenda/opt/gcc-arm-none-eabi/bin/../lib/gcc/arm-none-eabi/5.4.1/../../../../arm-none-eabi/lib/armv7e-m/fpu/libm.a(lib_a-k_rem_pio2.o)
signal                                            /home/wenda/opt/gcc-arm-none-eabi/bin/../lib/gcc/arm-none-eabi/5.4.1/../../../../arm-none-eabi/lib/armv7e-m/fpu/libc_nano.a(lib_a-signal.o)
signed char flatbuffers::Table::GetField<signed char>(unsigned short, signed char) const tensorflow/lite/core/api/flatbuffer_conversions.o
sin                                               /home/wenda/opt/gcc-arm-none-eabi/bin/../lib/gcc/arm-none-eabi/5.4.1/../../../../arm-none-eabi/lib/armv7e-m/fpu/libm.a(lib_a-s_sin.o)
                                                  tensorflow/lite/experimental/micro/examples/micro_speech/preprocessor.o
software_init_hook                                /home/wenda/opt/gcc-arm-none-eabi/bin/../lib/gcc/arm-none-eabi/5.4.1/../../../../arm-none-eabi/lib/armv7e-m/fpu/crt0.o
std::bad_exception::what() const                  /home/wenda/opt/gcc-arm-none-eabi/bin/../lib/gcc/arm-none-eabi/5.4.1/../../../../arm-none-eabi/lib/armv7e-m/fpu/libstdc++_nano.a(eh_exception.o)
std::bad_exception::~bad_exception()              /home/wenda/opt/gcc-arm-none-eabi/bin/../lib/gcc/arm-none-eabi/5.4.1/../../../../arm-none-eabi/lib/armv7e-m/fpu/libstdc++_nano.a(eh_exception.o)
std::bad_exception::~bad_exception()              /home/wenda/opt/gcc-arm-none-eabi/bin/../lib/gcc/arm-none-eabi/5.4.1/../../../../arm-none-eabi/lib/armv7e-m/fpu/libstdc++_nano.a(eh_exception.o)
std::bad_exception::~bad_exception()              /home/wenda/opt/gcc-arm-none-eabi/bin/../lib/gcc/arm-none-eabi/5.4.1/../../../../arm-none-eabi/lib/armv7e-m/fpu/libstdc++_nano.a(eh_exception.o)
std::exception::what() const                      /home/wenda/opt/gcc-arm-none-eabi/bin/../lib/gcc/arm-none-eabi/5.4.1/../../../../arm-none-eabi/lib/armv7e-m/fpu/libstdc++_nano.a(eh_exception.o)
std::exception::~exception()                      /home/wenda/opt/gcc-arm-none-eabi/bin/../lib/gcc/arm-none-eabi/5.4.1/../../../../arm-none-eabi/lib/armv7e-m/fpu/libstdc++_nano.a(eh_exception.o)
std::exception::~exception()                      /home/wenda/opt/gcc-arm-none-eabi/bin/../lib/gcc/arm-none-eabi/5.4.1/../../../../arm-none-eabi/lib/armv7e-m/fpu/libstdc++_nano.a(eh_exception.o)
std::exception::~exception()                      /home/wenda/opt/gcc-arm-none-eabi/bin/../lib/gcc/arm-none-eabi/5.4.1/../../../../arm-none-eabi/lib/armv7e-m/fpu/libstdc++_nano.a(eh_exception.o)
std::get_terminate()                              /home/wenda/opt/gcc-arm-none-eabi/bin/../lib/gcc/arm-none-eabi/5.4.1/../../../../arm-none-eabi/lib/armv7e-m/fpu/libstdc++_nano.a(eh_terminate.o)
std::get_unexpected()                             /home/wenda/opt/gcc-arm-none-eabi/bin/../lib/gcc/arm-none-eabi/5.4.1/../../../../arm-none-eabi/lib/armv7e-m/fpu/libstdc++_nano.a(eh_terminate.o)
std::set_terminate(void (*)())                    /home/wenda/opt/gcc-arm-none-eabi/bin/../lib/gcc/arm-none-eabi/5.4.1/../../../../arm-none-eabi/lib/armv7e-m/fpu/libstdc++_nano.a(eh_terminate.o)
std::set_unexpected(void (*)())                   /home/wenda/opt/gcc-arm-none-eabi/bin/../lib/gcc/arm-none-eabi/5.4.1/../../../../arm-none-eabi/lib/armv7e-m/fpu/libstdc++_nano.a(eh_terminate.o)
std::terminate()                                  /home/wenda/opt/gcc-arm-none-eabi/bin/../lib/gcc/arm-none-eabi/5.4.1/../../../../arm-none-eabi/lib/armv7e-m/fpu/libstdc++_nano.a(eh_terminate.o)
                                                  /home/wenda/opt/gcc-arm-none-eabi/bin/../lib/gcc/arm-none-eabi/5.4.1/../../../../arm-none-eabi/lib/armv7e-m/fpu/libstdc++_nano.a(pure.o)
                                                  /home/wenda/opt/gcc-arm-none-eabi/bin/../lib/gcc/arm-none-eabi/5.4.1/../../../../arm-none-eabi/lib/armv7e-m/fpu/libstdc++_nano.a(eh_unex_handler.o)
                                                  /home/wenda/opt/gcc-arm-none-eabi/bin/../lib/gcc/arm-none-eabi/5.4.1/../../../../arm-none-eabi/lib/armv7e-m/fpu/libstdc++_nano.a(eh_catch.o)
                                                  /home/wenda/opt/gcc-arm-none-eabi/bin/../lib/gcc/arm-none-eabi/5.4.1/../../../../arm-none-eabi/lib/armv7e-m/fpu/libstdc++_nano.a(eh_call.o)
                                                  /home/wenda/opt/gcc-arm-none-eabi/bin/../lib/gcc/arm-none-eabi/5.4.1/../../../../arm-none-eabi/lib/armv7e-m/fpu/libstdc++_nano.a(eh_arm.o)
                                                  /home/wenda/opt/gcc-arm-none-eabi/bin/../lib/gcc/arm-none-eabi/5.4.1/../../../../arm-none-eabi/lib/armv7e-m/fpu/libstdc++_nano.a(eh_personality.o)
std::type_info::__do_catch(std::type_info const*, void**, unsigned int) const /home/wenda/opt/gcc-arm-none-eabi/bin/../lib/gcc/arm-none-eabi/5.4.1/../../../../arm-none-eabi/lib/armv7e-m/fpu/libstdc++_nano.a(tinfo.o)
std::type_info::__do_upcast(__cxxabiv1::__class_type_info const*, void**) const /home/wenda/opt/gcc-arm-none-eabi/bin/../lib/gcc/arm-none-eabi/5.4.1/../../../../arm-none-eabi/lib/armv7e-m/fpu/libstdc++_nano.a(tinfo.o)
std::type_info::__is_function_p() const           /home/wenda/opt/gcc-arm-none-eabi/bin/../lib/gcc/arm-none-eabi/5.4.1/../../../../arm-none-eabi/lib/armv7e-m/fpu/libstdc++_nano.a(tinfo.o)
                                                  /home/wenda/opt/gcc-arm-none-eabi/bin/../lib/gcc/arm-none-eabi/5.4.1/../../../../arm-none-eabi/lib/armv7e-m/fpu/libstdc++_nano.a(class_type_info.o)
                                                  /home/wenda/opt/gcc-arm-none-eabi/bin/../lib/gcc/arm-none-eabi/5.4.1/../../../../arm-none-eabi/lib/armv7e-m/fpu/libstdc++_nano.a(si_class_type_info.o)
std::type_info::__is_pointer_p() const            /home/wenda/opt/gcc-arm-none-eabi/bin/../lib/gcc/arm-none-eabi/5.4.1/../../../../arm-none-eabi/lib/armv7e-m/fpu/libstdc++_nano.a(tinfo.o)
                                                  /home/wenda/opt/gcc-arm-none-eabi/bin/../lib/gcc/arm-none-eabi/5.4.1/../../../../arm-none-eabi/lib/armv7e-m/fpu/libstdc++_nano.a(class_type_info.o)
                                                  /home/wenda/opt/gcc-arm-none-eabi/bin/../lib/gcc/arm-none-eabi/5.4.1/../../../../arm-none-eabi/lib/armv7e-m/fpu/libstdc++_nano.a(si_class_type_info.o)
std::type_info::operator==(std::type_info const&) const /home/wenda/opt/gcc-arm-none-eabi/bin/../lib/gcc/arm-none-eabi/5.4.1/../../../../arm-none-eabi/lib/armv7e-m/fpu/libstdc++_nano.a(tinfo.o)
                                                  /home/wenda/opt/gcc-arm-none-eabi/bin/../lib/gcc/arm-none-eabi/5.4.1/../../../../arm-none-eabi/lib/armv7e-m/fpu/libstdc++_nano.a(class_type_info.o)
                                                  /home/wenda/opt/gcc-arm-none-eabi/bin/../lib/gcc/arm-none-eabi/5.4.1/../../../../arm-none-eabi/lib/armv7e-m/fpu/libstdc++_nano.a(si_class_type_info.o)
std::type_info::~type_info()                      /home/wenda/opt/gcc-arm-none-eabi/bin/../lib/gcc/arm-none-eabi/5.4.1/../../../../arm-none-eabi/lib/armv7e-m/fpu/libstdc++_nano.a(tinfo.o)
std::type_info::~type_info()                      /home/wenda/opt/gcc-arm-none-eabi/bin/../lib/gcc/arm-none-eabi/5.4.1/../../../../arm-none-eabi/lib/armv7e-m/fpu/libstdc++_nano.a(tinfo.o)
std::type_info::~type_info()                      /home/wenda/opt/gcc-arm-none-eabi/bin/../lib/gcc/arm-none-eabi/5.4.1/../../../../arm-none-eabi/lib/armv7e-m/fpu/libstdc++_nano.a(tinfo.o)
                                                  /home/wenda/opt/gcc-arm-none-eabi/bin/../lib/gcc/arm-none-eabi/5.4.1/../../../../arm-none-eabi/lib/armv7e-m/fpu/libstdc++_nano.a(class_type_info.o)
std::uncaught_exception()                         /home/wenda/opt/gcc-arm-none-eabi/bin/../lib/gcc/arm-none-eabi/5.4.1/../../../../arm-none-eabi/lib/armv7e-m/fpu/libstdc++_nano.a(eh_catch.o)
std::unexpected()                                 /home/wenda/opt/gcc-arm-none-eabi/bin/../lib/gcc/arm-none-eabi/5.4.1/../../../../arm-none-eabi/lib/armv7e-m/fpu/libstdc++_nano.a(eh_terminate.o)
                                                  /home/wenda/opt/gcc-arm-none-eabi/bin/../lib/gcc/arm-none-eabi/5.4.1/../../../../arm-none-eabi/lib/armv7e-m/fpu/libstdc++_nano.a(eh_call.o)
                                                  /home/wenda/opt/gcc-arm-none-eabi/bin/../lib/gcc/arm-none-eabi/5.4.1/../../../../arm-none-eabi/lib/armv7e-m/fpu/libstdc++_nano.a(eh_personality.o)
strcmp                                            /home/wenda/opt/gcc-arm-none-eabi/bin/../lib/gcc/arm-none-eabi/5.4.1/../../../../arm-none-eabi/lib/armv7e-m/fpu/libc_nano.a(lib_a-strcmp.o)
                                                  /home/wenda/opt/gcc-arm-none-eabi/bin/../lib/gcc/arm-none-eabi/5.4.1/../../../../arm-none-eabi/lib/armv7e-m/fpu/libstdc++_nano.a(tinfo.o)
                                                  tensorflow/lite/experimental/micro/micro_mutable_op_resolver.o
testDoubleFunction                                machinelearning.o
                                                  main.o
tflite::CalculateActivationRangeInt8(TfLiteFusedActivation, TfLiteTensor*, long*, long*) tensorflow/lite/kernels/kernel_util.o
tflite::CalculateActivationRangeQuantized(TfLiteContext*, TfLiteFusedActivation, TfLiteTensor*, long*, long*) tensorflow/lite/kernels/kernel_util.o
                                                  tensorflow/lite/experimental/micro/kernels/fully_connected.o
tflite::CalculateActivationRangeUint8(TfLiteFusedActivation, TfLiteTensor*, long*, long*) tensorflow/lite/kernels/kernel_util.o
                                                  tensorflow/lite/experimental/micro/kernels/depthwise_conv.o
tflite::CalculateInputRadius(int, int)            tensorflow/lite/kernels/internal/quantization_util.o
                                                  tensorflow/lite/experimental/micro/kernels/softmax.o
tflite::CheckedLog2(float, int*)                  tensorflow/lite/kernels/internal/quantization_util.o
tflite::ConvertTensorType(tflite::TensorType, TfLiteType*, tflite::ErrorReporter*) tensorflow/lite/core/api/flatbuffer_conversions.o
                                                  tensorflow/lite/experimental/micro/simple_tensor_allocator.o
tflite::DoubleFromFractionAndShift(long long, int) tensorflow/lite/kernels/internal/quantization_util.o
tflite::EnumNamesBuiltinOperator()::names         tensorflow/lite/experimental/micro/micro_interpreter.o
                                                  tensorflow/lite/core/api/op_resolver.o
tflite::EnumNamesTensorType()::names              tensorflow/lite/core/api/flatbuffer_conversions.o
tflite::ErrorReporter::Report(char const*, ...)   tensorflow/lite/core/api/error_reporter.o
                                                  machinelearning.o
                                                  tensorflow/lite/experimental/micro/examples/micro_speech/recognize_commands.o
                                                  tensorflow/lite/experimental/micro/examples/micro_speech/preprocessor.o
                                                  tensorflow/lite/experimental/micro/examples/micro_speech/feature_provider.o
                                                  tensorflow/lite/core/api/op_resolver.o
                                                  tensorflow/lite/core/api/flatbuffer_conversions.o
                                                  tensorflow/lite/experimental/micro/micro_interpreter.o
                                                  tensorflow/lite/experimental/micro/simple_tensor_allocator.o
tflite::ErrorReporter::ReportError(void*, char const*, ...) tensorflow/lite/core/api/error_reporter.o
tflite::FakeQuantizeArray(float, float, float, float const*, float*, float) tensorflow/lite/kernels/internal/quantization_util.o
tflite::FlatSizeSkipDim(tflite::RuntimeShape const&, int) tensorflow/lite/experimental/micro/kernels/softmax.o
                                                  tensorflow/lite/experimental/micro/kernels/fully_connected.o
tflite::GetQuantizedConvolutionMultipler(TfLiteContext*, TfLiteTensor const*, TfLiteTensor const*, TfLiteTensor const*, TfLiteTensor*, double*) tensorflow/lite/kernels/kernel_util.o
                                                  tensorflow/lite/experimental/micro/kernels/fully_connected.o
                                                  tensorflow/lite/experimental/micro/kernels/depthwise_conv.o
tflite::GetRegistrationFromOpCode(tflite::OperatorCode const*, tflite::OpResolver const&, tflite::ErrorReporter*, _TfLiteRegistration const**) tensorflow/lite/core/api/op_resolver.o
                                                  tensorflow/lite/experimental/micro/micro_interpreter.o
tflite::GetTensorShape(TfLiteTensor const*)       tensorflow/lite/experimental/micro/kernels/depthwise_conv.o
                                                  tensorflow/lite/experimental/micro/kernels/fully_connected.o
                                                  tensorflow/lite/experimental/micro/kernels/softmax.o
tflite::HaveSameShapes(TfLiteTensor const*, TfLiteTensor const*) tensorflow/lite/kernels/kernel_util.o
tflite::IntegerDoubleCompare(double, double)      tensorflow/lite/kernels/internal/quantization_util.o
tflite::IntegerDoubleMultiply(double, double)     tensorflow/lite/kernels/internal/quantization_util.o
tflite::IntegerFrExp(double, int*)                tensorflow/lite/kernels/internal/quantization_util.o
tflite::MicroErrorReporter::Report(char const*, std::__va_list) tensorflow/lite/experimental/micro/micro_error_reporter.o
tflite::MicroErrorReporter::~MicroErrorReporter() tensorflow/lite/experimental/micro/micro_error_reporter.o
tflite::MicroErrorReporter::~MicroErrorReporter() tensorflow/lite/experimental/micro/micro_error_reporter.o
tflite::MicroErrorReporter::~MicroErrorReporter() tensorflow/lite/experimental/micro/micro_error_reporter.o
tflite::MicroInterpreter::Invoke()                tensorflow/lite/experimental/micro/micro_interpreter.o
                                                  machinelearning.o
tflite::MicroInterpreter::MicroInterpreter(tflite::Model const*, tflite::OpResolver const&, tflite::SimpleTensorAllocator*, tflite::ErrorReporter*) tensorflow/lite/experimental/micro/micro_interpreter.o
                                                  machinelearning.o
tflite::MicroInterpreter::MicroInterpreter(tflite::Model const*, tflite::OpResolver const&, tflite::SimpleTensorAllocator*, tflite::ErrorReporter*) tensorflow/lite/experimental/micro/micro_interpreter.o
tflite::MicroInterpreter::input(int)              tensorflow/lite/experimental/micro/micro_interpreter.o
                                                  machinelearning.o
tflite::MicroInterpreter::output(int)             tensorflow/lite/experimental/micro/micro_interpreter.o
                                                  machinelearning.o
tflite::MicroMutableOpResolver::AddBuiltin(tflite::BuiltinOperator, _TfLiteRegistration*, int, int) tensorflow/lite/experimental/micro/micro_mutable_op_resolver.o
                                                  tensorflow/lite/experimental/micro/kernels/all_ops_resolver.o
tflite::MicroMutableOpResolver::AddCustom(char const*, _TfLiteRegistration*, int, int) tensorflow/lite/experimental/micro/micro_mutable_op_resolver.o
tflite::MicroMutableOpResolver::FindOp(char const*, int) const tensorflow/lite/experimental/micro/micro_mutable_op_resolver.o
                                                  tensorflow/lite/experimental/micro/kernels/all_ops_resolver.o
tflite::MicroMutableOpResolver::FindOp(tflite::BuiltinOperator, int) const tensorflow/lite/experimental/micro/micro_mutable_op_resolver.o
                                                  tensorflow/lite/experimental/micro/kernels/all_ops_resolver.o
tflite::MicroMutableOpResolver::~MicroMutableOpResolver() tensorflow/lite/experimental/micro/micro_mutable_op_resolver.o
tflite::MicroMutableOpResolver::~MicroMutableOpResolver() tensorflow/lite/experimental/micro/micro_mutable_op_resolver.o
tflite::MicroMutableOpResolver::~MicroMutableOpResolver() tensorflow/lite/experimental/micro/micro_mutable_op_resolver.o
tflite::MultiplyByQuantizedMultiplier(long, long, int) tensorflow/lite/experimental/micro/kernels/fully_connected.o
tflite::NudgeQuantizationRange(float, float, int, int, float*, float*, float*) tensorflow/lite/kernels/internal/quantization_util.o
tflite::Operator::builtin_options() const         tensorflow/lite/core/api/flatbuffer_conversions.o
tflite::Operator::builtin_options_type() const    tensorflow/lite/core/api/flatbuffer_conversions.o
tflite::ParseOpData(tflite::Operator const*, tflite::BuiltinOperator, tflite::ErrorReporter*, tflite::BuiltinDataAllocator*, void**) tensorflow/lite/core/api/flatbuffer_conversions.o
                                                  tensorflow/lite/experimental/micro/micro_interpreter.o
tflite::PreprocessLogSoftmaxScalingExp(double, double, int, long*, int*, long*, int*) tensorflow/lite/kernels/internal/quantization_util.o
tflite::PreprocessSoftmaxScaling(double, double, int, long*, int*) tensorflow/lite/kernels/internal/quantization_util.o
                                                  tensorflow/lite/experimental/micro/kernels/softmax.o
tflite::QuantizationParameters const* flatbuffers::Table::GetPointer<tflite::QuantizationParameters const*>(unsigned short) tensorflow/lite/experimental/micro/simple_tensor_allocator.o
tflite::QuantizeMultiplier(double, long*, int*)   tensorflow/lite/kernels/internal/quantization_util.o
                                                  tensorflow/lite/experimental/micro/kernels/fully_connected.o
                                                  tensorflow/lite/experimental/micro/kernels/depthwise_conv.o
tflite::QuantizeMultiplierGreaterThanOne(double, long*, int*) tensorflow/lite/kernels/internal/quantization_util.o
tflite::QuantizeMultiplierSmallerThanOneExp(double, long*, int*) tensorflow/lite/kernels/internal/quantization_util.o
tflite::RuntimeShape::Dims(int) const             tensorflow/lite/experimental/micro/kernels/depthwise_conv.o
                                                  tensorflow/lite/experimental/micro/kernels/fully_connected.o
tflite::RuntimeShape::ReplaceWith(int, long const*) tensorflow/lite/experimental/micro/kernels/softmax.o
tflite::RuntimeShape::~RuntimeShape()             tensorflow/lite/experimental/micro/kernels/depthwise_conv.o
                                                  tensorflow/lite/experimental/micro/kernels/fully_connected.o
                                                  tensorflow/lite/experimental/micro/kernels/softmax.o
tflite::RuntimeShape::~RuntimeShape()             tensorflow/lite/experimental/micro/kernels/depthwise_conv.o
                                                  tensorflow/lite/experimental/micro/kernels/fully_connected.o
                                                  tensorflow/lite/experimental/micro/kernels/softmax.o
tflite::SimpleTensorAllocator::AllocateMemory(unsigned int, unsigned int) tensorflow/lite/experimental/micro/simple_tensor_allocator.o
                                                  tensorflow/lite/experimental/micro/micro_interpreter.o
tflite::SimpleTensorAllocator::AllocateTensor(tflite::Tensor const&, int, int, flatbuffers::Vector<flatbuffers::Offset<tflite::Buffer> > const*, tflite::ErrorReporter*, TfLiteTensor*) tensorflow/lite/experimental/micro/simple_tensor_allocator.o
                                                  tensorflow/lite/experimental/micro/micro_interpreter.o
tflite::Tensor::is_variable() const               tensorflow/lite/experimental/micro/micro_interpreter.o
tflite::Tensor::type() const                      tensorflow/lite/experimental/micro/simple_tensor_allocator.o
tflite::ops::micro::AllOpsResolver::AllOpsResolver() tensorflow/lite/experimental/micro/kernels/all_ops_resolver.o
tflite::ops::micro::AllOpsResolver::AllOpsResolver() tensorflow/lite/experimental/micro/kernels/all_ops_resolver.o
                                                  machinelearning.o
tflite::ops::micro::AllOpsResolver::~AllOpsResolver() tensorflow/lite/experimental/micro/kernels/all_ops_resolver.o
tflite::ops::micro::AllOpsResolver::~AllOpsResolver() tensorflow/lite/experimental/micro/kernels/all_ops_resolver.o
tflite::ops::micro::AllOpsResolver::~AllOpsResolver() tensorflow/lite/experimental/micro/kernels/all_ops_resolver.o
tflite::ops::micro::Micro_Register_DEPTHWISE_CONV_2D() tensorflow/lite/experimental/micro/kernels/all_ops_resolver.o
tflite::ops::micro::Micro_Register_FULLY_CONNECTED() tensorflow/lite/experimental/micro/kernels/all_ops_resolver.o
tflite::ops::micro::Micro_Register_SOFTMAX()      tensorflow/lite/experimental/micro/kernels/all_ops_resolver.o
tflite::ops::micro::Register_DEPTHWISE_CONV_2D()  tensorflow/lite/experimental/micro/kernels/depthwise_conv.o
                                                  tensorflow/lite/experimental/micro/kernels/all_ops_resolver.o
tflite::ops::micro::Register_FULLY_CONNECTED()    tensorflow/lite/experimental/micro/kernels/fully_connected.o
                                                  tensorflow/lite/experimental/micro/kernels/all_ops_resolver.o
tflite::ops::micro::Register_SOFTMAX()            tensorflow/lite/experimental/micro/kernels/softmax.o
                                                  tensorflow/lite/experimental/micro/kernels/all_ops_resolver.o
tflite::ops::micro::activations::Free(TfLiteContext*, void*) tensorflow/lite/experimental/micro/kernels/softmax.o
tflite::ops::micro::activations::Init(TfLiteContext*, char const*, unsigned int) tensorflow/lite/experimental/micro/kernels/softmax.o
tflite::ops::micro::activations::Softmax1DFloat(TfLiteTensor const*, TfLiteTensor*, TfLiteSoftmaxParams*) tensorflow/lite/experimental/micro/kernels/softmax.o
tflite::ops::micro::activations::Softmax2DFloat(TfLiteTensor const*, TfLiteTensor*, TfLiteSoftmaxParams*) tensorflow/lite/experimental/micro/kernels/softmax.o
tflite::ops::micro::activations::Softmax4DFloat(TfLiteTensor const*, TfLiteTensor*, TfLiteSoftmaxParams*) tensorflow/lite/experimental/micro/kernels/softmax.o
tflite::ops::micro::activations::SoftmaxEval(TfLiteContext*, TfLiteNode*) tensorflow/lite/experimental/micro/kernels/softmax.o
tflite::ops::micro::activations::SoftmaxPrepare(TfLiteContext*, TfLiteNode*) tensorflow/lite/experimental/micro/kernels/softmax.o
tflite::ops::micro::depthwise_conv::Eval(TfLiteContext*, TfLiteNode*) tensorflow/lite/experimental/micro/kernels/depthwise_conv.o
tflite::ops::micro::depthwise_conv::Free(TfLiteContext*, void*) tensorflow/lite/experimental/micro/kernels/depthwise_conv.o
tflite::ops::micro::depthwise_conv::Init(TfLiteContext*, char const*, unsigned int) tensorflow/lite/experimental/micro/kernels/depthwise_conv.o
tflite::ops::micro::depthwise_conv::Prepare(TfLiteContext*, TfLiteNode*) tensorflow/lite/experimental/micro/kernels/depthwise_conv.o
tflite::ops::micro::fully_connected::Eval(TfLiteContext*, TfLiteNode*) tensorflow/lite/experimental/micro/kernels/fully_connected.o
tflite::ops::micro::fully_connected::Free(TfLiteContext*, void*) tensorflow/lite/experimental/micro/kernels/fully_connected.o
tflite::ops::micro::fully_connected::Init(TfLiteContext*, char const*, unsigned int) tensorflow/lite/experimental/micro/kernels/fully_connected.o
tflite::ops::micro::fully_connected::Prepare(TfLiteContext*, TfLiteNode*) tensorflow/lite/experimental/micro/kernels/fully_connected.o
tflite::reference_ops::DepthwiseConv(tflite::DepthwiseParams const&, tflite::RuntimeShape const&, float const*, tflite::RuntimeShape const&, float const*, tflite::RuntimeShape const&, float const*, tflite::RuntimeShape const&, float*) tensorflow/lite/experimental/micro/kernels/depthwise_conv.o
tflite::reference_ops::DepthwiseConv(tflite::DepthwiseParams const&, tflite::RuntimeShape const&, unsigned char const*, tflite::RuntimeShape const&, unsigned char const*, tflite::RuntimeShape const&, long const*, tflite::RuntimeShape const&, unsigned char*) tensorflow/lite/experimental/micro/kernels/depthwise_conv.o
tflite::reference_ops::Softmax(float const*, int, int, float, float*) tensorflow/lite/experimental/micro/kernels/softmax.o
tflite::reference_ops::Softmax(tflite::SoftmaxParams const&, tflite::RuntimeShape const&, float const*, tflite::RuntimeShape const&, float*) tensorflow/lite/experimental/micro/kernels/softmax.o
tflite::reference_ops::Softmax(tflite::SoftmaxParams const&, tflite::RuntimeShape const&, unsigned char const*, tflite::RuntimeShape const&, unsigned char*) tensorflow/lite/experimental/micro/kernels/softmax.o
tiny_mnist_model                                  tf_micro_model_backup.o
tiny_mnist_model_len                              tf_micro_model_backup.o
typeinfo for __cxxabiv1::__class_type_info        /home/wenda/opt/gcc-arm-none-eabi/bin/../lib/gcc/arm-none-eabi/5.4.1/../../../../arm-none-eabi/lib/armv7e-m/fpu/libstdc++_nano.a(class_type_info.o)
                                                  /home/wenda/opt/gcc-arm-none-eabi/bin/../lib/gcc/arm-none-eabi/5.4.1/../../../../arm-none-eabi/lib/armv7e-m/fpu/libstdc++_nano.a(si_class_type_info.o)
typeinfo for __cxxabiv1::__forced_unwind          /home/wenda/opt/gcc-arm-none-eabi/bin/../lib/gcc/arm-none-eabi/5.4.1/../../../../arm-none-eabi/lib/armv7e-m/fpu/libstdc++_nano.a(eh_exception.o)
                                                  /home/wenda/opt/gcc-arm-none-eabi/bin/../lib/gcc/arm-none-eabi/5.4.1/../../../../arm-none-eabi/lib/armv7e-m/fpu/libstdc++_nano.a(eh_arm.o)
typeinfo for __cxxabiv1::__foreign_exception      /home/wenda/opt/gcc-arm-none-eabi/bin/../lib/gcc/arm-none-eabi/5.4.1/../../../../arm-none-eabi/lib/armv7e-m/fpu/libstdc++_nano.a(eh_exception.o)
                                                  /home/wenda/opt/gcc-arm-none-eabi/bin/../lib/gcc/arm-none-eabi/5.4.1/../../../../arm-none-eabi/lib/armv7e-m/fpu/libstdc++_nano.a(eh_arm.o)
typeinfo for __cxxabiv1::__si_class_type_info     /home/wenda/opt/gcc-arm-none-eabi/bin/../lib/gcc/arm-none-eabi/5.4.1/../../../../arm-none-eabi/lib/armv7e-m/fpu/libstdc++_nano.a(si_class_type_info.o)
typeinfo for std::bad_exception                   /home/wenda/opt/gcc-arm-none-eabi/bin/../lib/gcc/arm-none-eabi/5.4.1/../../../../arm-none-eabi/lib/armv7e-m/fpu/libstdc++_nano.a(eh_exception.o)
typeinfo for std::exception                       /home/wenda/opt/gcc-arm-none-eabi/bin/../lib/gcc/arm-none-eabi/5.4.1/../../../../arm-none-eabi/lib/armv7e-m/fpu/libstdc++_nano.a(eh_exception.o)
typeinfo for std::type_info                       /home/wenda/opt/gcc-arm-none-eabi/bin/../lib/gcc/arm-none-eabi/5.4.1/../../../../arm-none-eabi/lib/armv7e-m/fpu/libstdc++_nano.a(tinfo.o)
                                                  /home/wenda/opt/gcc-arm-none-eabi/bin/../lib/gcc/arm-none-eabi/5.4.1/../../../../arm-none-eabi/lib/armv7e-m/fpu/libstdc++_nano.a(class_type_info.o)
typeinfo for tflite::BuiltinDataAllocator         tensorflow/lite/experimental/micro/micro_interpreter.o
typeinfo for tflite::ErrorReporter                tensorflow/lite/experimental/micro/micro_error_reporter.o
typeinfo for tflite::MicroErrorReporter           tensorflow/lite/experimental/micro/micro_error_reporter.o
typeinfo for tflite::MicroMutableOpResolver       tensorflow/lite/experimental/micro/micro_mutable_op_resolver.o
                                                  tensorflow/lite/experimental/micro/kernels/all_ops_resolver.o
typeinfo for tflite::OpResolver                   tensorflow/lite/experimental/micro/micro_mutable_op_resolver.o
typeinfo for tflite::ops::micro::AllOpsResolver   tensorflow/lite/experimental/micro/kernels/all_ops_resolver.o
typeinfo name for __cxxabiv1::__class_type_info   /home/wenda/opt/gcc-arm-none-eabi/bin/../lib/gcc/arm-none-eabi/5.4.1/../../../../arm-none-eabi/lib/armv7e-m/fpu/libstdc++_nano.a(class_type_info.o)
typeinfo name for __cxxabiv1::__forced_unwind     /home/wenda/opt/gcc-arm-none-eabi/bin/../lib/gcc/arm-none-eabi/5.4.1/../../../../arm-none-eabi/lib/armv7e-m/fpu/libstdc++_nano.a(eh_exception.o)
typeinfo name for __cxxabiv1::__foreign_exception /home/wenda/opt/gcc-arm-none-eabi/bin/../lib/gcc/arm-none-eabi/5.4.1/../../../../arm-none-eabi/lib/armv7e-m/fpu/libstdc++_nano.a(eh_exception.o)
typeinfo name for __cxxabiv1::__si_class_type_info /home/wenda/opt/gcc-arm-none-eabi/bin/../lib/gcc/arm-none-eabi/5.4.1/../../../../arm-none-eabi/lib/armv7e-m/fpu/libstdc++_nano.a(si_class_type_info.o)
typeinfo name for std::bad_exception              /home/wenda/opt/gcc-arm-none-eabi/bin/../lib/gcc/arm-none-eabi/5.4.1/../../../../arm-none-eabi/lib/armv7e-m/fpu/libstdc++_nano.a(eh_exception.o)
typeinfo name for std::exception                  /home/wenda/opt/gcc-arm-none-eabi/bin/../lib/gcc/arm-none-eabi/5.4.1/../../../../arm-none-eabi/lib/armv7e-m/fpu/libstdc++_nano.a(eh_exception.o)
typeinfo name for std::type_info                  /home/wenda/opt/gcc-arm-none-eabi/bin/../lib/gcc/arm-none-eabi/5.4.1/../../../../arm-none-eabi/lib/armv7e-m/fpu/libstdc++_nano.a(tinfo.o)
typeinfo name for tflite::BuiltinDataAllocator    tensorflow/lite/experimental/micro/micro_interpreter.o
typeinfo name for tflite::ErrorReporter           tensorflow/lite/experimental/micro/micro_error_reporter.o
typeinfo name for tflite::MicroErrorReporter      tensorflow/lite/experimental/micro/micro_error_reporter.o
typeinfo name for tflite::MicroMutableOpResolver  tensorflow/lite/experimental/micro/micro_mutable_op_resolver.o
typeinfo name for tflite::OpResolver              tensorflow/lite/experimental/micro/micro_mutable_op_resolver.o
typeinfo name for tflite::ops::micro::AllOpsResolver tensorflow/lite/experimental/micro/kernels/all_ops_resolver.o
unsigned char flatbuffers::Table::GetField<unsigned char>(unsigned short, unsigned char) const tensorflow/lite/core/api/flatbuffer_conversions.o
vfiprintf                                         /home/wenda/opt/gcc-arm-none-eabi/bin/../lib/gcc/arm-none-eabi/5.4.1/../../../../arm-none-eabi/lib/armv7e-m/fpu/libc_nano.a(lib_a-nano-vfprintf.o)
vfprintf                                          /home/wenda/opt/gcc-arm-none-eabi/bin/../lib/gcc/arm-none-eabi/5.4.1/../../../../arm-none-eabi/lib/armv7e-m/fpu/libc_nano.a(lib_a-nano-vfprintf.o)
vtable for __cxxabiv1::__class_type_info          /home/wenda/opt/gcc-arm-none-eabi/bin/../lib/gcc/arm-none-eabi/5.4.1/../../../../arm-none-eabi/lib/armv7e-m/fpu/libstdc++_nano.a(class_type_info.o)
                                                  /home/wenda/opt/gcc-arm-none-eabi/bin/../lib/gcc/arm-none-eabi/5.4.1/../../../../arm-none-eabi/lib/armv7e-m/fpu/libstdc++_nano.a(eh_exception.o)
                                                  /home/wenda/opt/gcc-arm-none-eabi/bin/../lib/gcc/arm-none-eabi/5.4.1/../../../../arm-none-eabi/lib/armv7e-m/fpu/libstdc++_nano.a(tinfo.o)
                                                  tensorflow/lite/experimental/micro/micro_interpreter.o
                                                  tensorflow/lite/experimental/micro/micro_mutable_op_resolver.o
                                                  tensorflow/lite/experimental/micro/micro_error_reporter.o
vtable for __cxxabiv1::__forced_unwind            /home/wenda/opt/gcc-arm-none-eabi/bin/../lib/gcc/arm-none-eabi/5.4.1/../../../../arm-none-eabi/lib/armv7e-m/fpu/libstdc++_nano.a(eh_exception.o)
vtable for __cxxabiv1::__foreign_exception        /home/wenda/opt/gcc-arm-none-eabi/bin/../lib/gcc/arm-none-eabi/5.4.1/../../../../arm-none-eabi/lib/armv7e-m/fpu/libstdc++_nano.a(eh_exception.o)
vtable for __cxxabiv1::__si_class_type_info       /home/wenda/opt/gcc-arm-none-eabi/bin/../lib/gcc/arm-none-eabi/5.4.1/../../../../arm-none-eabi/lib/armv7e-m/fpu/libstdc++_nano.a(si_class_type_info.o)
                                                  /home/wenda/opt/gcc-arm-none-eabi/bin/../lib/gcc/arm-none-eabi/5.4.1/../../../../arm-none-eabi/lib/armv7e-m/fpu/libstdc++_nano.a(eh_exception.o)
                                                  /home/wenda/opt/gcc-arm-none-eabi/bin/../lib/gcc/arm-none-eabi/5.4.1/../../../../arm-none-eabi/lib/armv7e-m/fpu/libstdc++_nano.a(class_type_info.o)
                                                  tensorflow/lite/experimental/micro/kernels/all_ops_resolver.o
                                                  tensorflow/lite/experimental/micro/micro_interpreter.o
                                                  tensorflow/lite/experimental/micro/micro_mutable_op_resolver.o
                                                  tensorflow/lite/experimental/micro/micro_error_reporter.o
vtable for std::bad_exception                     /home/wenda/opt/gcc-arm-none-eabi/bin/../lib/gcc/arm-none-eabi/5.4.1/../../../../arm-none-eabi/lib/armv7e-m/fpu/libstdc++_nano.a(eh_exception.o)
vtable for std::exception                         /home/wenda/opt/gcc-arm-none-eabi/bin/../lib/gcc/arm-none-eabi/5.4.1/../../../../arm-none-eabi/lib/armv7e-m/fpu/libstdc++_nano.a(eh_exception.o)
vtable for std::type_info                         /home/wenda/opt/gcc-arm-none-eabi/bin/../lib/gcc/arm-none-eabi/5.4.1/../../../../arm-none-eabi/lib/armv7e-m/fpu/libstdc++_nano.a(tinfo.o)
vtable for tflite::MicroErrorReporter             tensorflow/lite/experimental/micro/micro_error_reporter.o
                                                  machinelearning.o
vtable for tflite::MicroMutableOpResolver         tensorflow/lite/experimental/micro/micro_mutable_op_resolver.o
vtable for tflite::ops::micro::AllOpsResolver     tensorflow/lite/experimental/micro/kernels/all_ops_resolver.o
